
rv32ui-p-beq:     file format elf32-littleriscv


Disassembly of section .text.init:

00000200 <_start>:
 200:	0480006f          	jal	x0,248 <reset_vector>

00000204 <trap_vector>:
 204:	34202f73          	csrrs	x30,mcause,x0
 208:	00800f93          	addi	x31,x0,8
 20c:	03ff0863          	beq	x30,x31,23c <write_tohost>
 210:	00900f93          	addi	x31,x0,9
 214:	03ff0463          	beq	x30,x31,23c <write_tohost>
 218:	00b00f93          	addi	x31,x0,11
 21c:	03ff0063          	beq	x30,x31,23c <write_tohost>
 220:	00000f13          	addi	x30,x0,0
 224:	000f0463          	beq	x30,x0,22c <trap_vector+0x28>
 228:	000f0067          	jalr	x0,0(x30)
 22c:	34202f73          	csrrs	x30,mcause,x0
 230:	000f5463          	bge	x30,x0,238 <handle_exception>
 234:	0040006f          	jal	x0,238 <handle_exception>

00000238 <handle_exception>:
 238:	5391e193          	ori	x3,x3,1337

0000023c <write_tohost>:
 23c:	00001f17          	auipc	x30,0x1
 240:	dc3f2223          	sw	x3,-572(x30) # 1000 <tohost>
 244:	ff9ff06f          	jal	x0,23c <write_tohost>

00000248 <reset_vector>:
 248:	00000093          	addi	x1,x0,0
 24c:	00000113          	addi	x2,x0,0
 250:	00000193          	addi	x3,x0,0
 254:	00000213          	addi	x4,x0,0
 258:	00000293          	addi	x5,x0,0
 25c:	00000313          	addi	x6,x0,0
 260:	00000393          	addi	x7,x0,0
 264:	00000413          	addi	x8,x0,0
 268:	00000493          	addi	x9,x0,0
 26c:	00000513          	addi	x10,x0,0
 270:	00000593          	addi	x11,x0,0
 274:	00000613          	addi	x12,x0,0
 278:	00000693          	addi	x13,x0,0
 27c:	00000713          	addi	x14,x0,0
 280:	00000793          	addi	x15,x0,0
 284:	00000813          	addi	x16,x0,0
 288:	00000893          	addi	x17,x0,0
 28c:	00000913          	addi	x18,x0,0
 290:	00000993          	addi	x19,x0,0
 294:	00000a13          	addi	x20,x0,0
 298:	00000a93          	addi	x21,x0,0
 29c:	00000b13          	addi	x22,x0,0
 2a0:	00000b93          	addi	x23,x0,0
 2a4:	00000c13          	addi	x24,x0,0
 2a8:	00000c93          	addi	x25,x0,0
 2ac:	00000d13          	addi	x26,x0,0
 2b0:	00000d93          	addi	x27,x0,0
 2b4:	00000e13          	addi	x28,x0,0
 2b8:	00000e93          	addi	x29,x0,0
 2bc:	00000f13          	addi	x30,x0,0
 2c0:	00000f93          	addi	x31,x0,0
 2c4:	f1402573          	csrrs	x10,mhartid,x0
 2c8:	00051063          	bne	x10,x0,2c8 <reset_vector+0x80>
 2cc:	00000297          	auipc	x5,0x0
 2d0:	01028293          	addi	x5,x5,16 # 2dc <reset_vector+0x94>
 2d4:	30529073          	csrrw	x0,mtvec,x5
 2d8:	18005073          	csrrwi	x0,satp,0
 2dc:	00000297          	auipc	x5,0x0
 2e0:	02028293          	addi	x5,x5,32 # 2fc <reset_vector+0xb4>
 2e4:	30529073          	csrrw	x0,mtvec,x5
 2e8:	800002b7          	lui	x5,0x80000
 2ec:	fff28293          	addi	x5,x5,-1 # 7fffffff <_end+0x7fffdfff>
 2f0:	3b029073          	csrrw	x0,pmpaddr0,x5
 2f4:	01f00293          	addi	x5,x0,31
 2f8:	3a029073          	csrrw	x0,pmpcfg0,x5
 2fc:	30405073          	csrrwi	x0,mie,0
 300:	00000297          	auipc	x5,0x0
 304:	01428293          	addi	x5,x5,20 # 314 <reset_vector+0xcc>
 308:	30529073          	csrrw	x0,mtvec,x5
 30c:	30205073          	csrrwi	x0,medeleg,0
 310:	30305073          	csrrwi	x0,mideleg,0
 314:	00000193          	addi	x3,x0,0
 318:	00000297          	auipc	x5,0x0
 31c:	eec28293          	addi	x5,x5,-276 # 204 <trap_vector>
 320:	30529073          	csrrw	x0,mtvec,x5
 324:	00100513          	addi	x10,x0,1
 328:	01f51513          	slli	x10,x10,0x1f
 32c:	00054c63          	blt	x10,x0,344 <reset_vector+0xfc>
 330:	0ff0000f          	fence	iorw,iorw
 334:	00100193          	addi	x3,x0,1
 338:	05d00893          	addi	x17,x0,93
 33c:	00000513          	addi	x10,x0,0
 340:	00000073          	ecall
 344:	00000293          	addi	x5,x0,0
 348:	00028a63          	beq	x5,x0,35c <reset_vector+0x114>
 34c:	10529073          	csrrw	x0,stvec,x5
 350:	0000b2b7          	lui	x5,0xb
 354:	10928293          	addi	x5,x5,265 # b109 <_end+0x9109>
 358:	30229073          	csrrw	x0,medeleg,x5
 35c:	30005073          	csrrwi	x0,mstatus,0
 360:	00000297          	auipc	x5,0x0
 364:	01428293          	addi	x5,x5,20 # 374 <test_2>
 368:	34129073          	csrrw	x0,mepc,x5
 36c:	f1402573          	csrrs	x10,mhartid,x0
 370:	30200073          	mret

00000374 <test_2>:
 374:	00200193          	addi	x3,x0,2
 378:	00000093          	addi	x1,x0,0
 37c:	00000113          	addi	x2,x0,0
 380:	00208663          	beq	x1,x2,38c <test_2+0x18>
 384:	2a301863          	bne	x0,x3,634 <fail>
 388:	00301663          	bne	x0,x3,394 <test_3>
 38c:	fe208ee3          	beq	x1,x2,388 <test_2+0x14>
 390:	2a301263          	bne	x0,x3,634 <fail>

00000394 <test_3>:
 394:	00300193          	addi	x3,x0,3
 398:	00100093          	addi	x1,x0,1
 39c:	00100113          	addi	x2,x0,1
 3a0:	00208663          	beq	x1,x2,3ac <test_3+0x18>
 3a4:	28301863          	bne	x0,x3,634 <fail>
 3a8:	00301663          	bne	x0,x3,3b4 <test_4>
 3ac:	fe208ee3          	beq	x1,x2,3a8 <test_3+0x14>
 3b0:	28301263          	bne	x0,x3,634 <fail>

000003b4 <test_4>:
 3b4:	00400193          	addi	x3,x0,4
 3b8:	fff00093          	addi	x1,x0,-1
 3bc:	fff00113          	addi	x2,x0,-1
 3c0:	00208663          	beq	x1,x2,3cc <test_4+0x18>
 3c4:	26301863          	bne	x0,x3,634 <fail>
 3c8:	00301663          	bne	x0,x3,3d4 <test_5>
 3cc:	fe208ee3          	beq	x1,x2,3c8 <test_4+0x14>
 3d0:	26301263          	bne	x0,x3,634 <fail>

000003d4 <test_5>:
 3d4:	00500193          	addi	x3,x0,5
 3d8:	00000093          	addi	x1,x0,0
 3dc:	00100113          	addi	x2,x0,1
 3e0:	00208463          	beq	x1,x2,3e8 <test_5+0x14>
 3e4:	00301463          	bne	x0,x3,3ec <test_5+0x18>
 3e8:	24301663          	bne	x0,x3,634 <fail>
 3ec:	fe208ee3          	beq	x1,x2,3e8 <test_5+0x14>

000003f0 <test_6>:
 3f0:	00600193          	addi	x3,x0,6
 3f4:	00100093          	addi	x1,x0,1
 3f8:	00000113          	addi	x2,x0,0
 3fc:	00208463          	beq	x1,x2,404 <test_6+0x14>
 400:	00301463          	bne	x0,x3,408 <test_6+0x18>
 404:	22301863          	bne	x0,x3,634 <fail>
 408:	fe208ee3          	beq	x1,x2,404 <test_6+0x14>

0000040c <test_7>:
 40c:	00700193          	addi	x3,x0,7
 410:	fff00093          	addi	x1,x0,-1
 414:	00100113          	addi	x2,x0,1
 418:	00208463          	beq	x1,x2,420 <test_7+0x14>
 41c:	00301463          	bne	x0,x3,424 <test_7+0x18>
 420:	20301a63          	bne	x0,x3,634 <fail>
 424:	fe208ee3          	beq	x1,x2,420 <test_7+0x14>

00000428 <test_8>:
 428:	00800193          	addi	x3,x0,8
 42c:	00100093          	addi	x1,x0,1
 430:	fff00113          	addi	x2,x0,-1
 434:	00208463          	beq	x1,x2,43c <test_8+0x14>
 438:	00301463          	bne	x0,x3,440 <test_8+0x18>
 43c:	1e301c63          	bne	x0,x3,634 <fail>
 440:	fe208ee3          	beq	x1,x2,43c <test_8+0x14>

00000444 <test_9>:
 444:	00900193          	addi	x3,x0,9
 448:	00000213          	addi	x4,x0,0
 44c:	00000093          	addi	x1,x0,0
 450:	fff00113          	addi	x2,x0,-1
 454:	1e208063          	beq	x1,x2,634 <fail>
 458:	00120213          	addi	x4,x4,1 # 1 <_start-0x1ff>
 45c:	00200293          	addi	x5,x0,2
 460:	fe5216e3          	bne	x4,x5,44c <test_9+0x8>

00000464 <test_10>:
 464:	00a00193          	addi	x3,x0,10
 468:	00000213          	addi	x4,x0,0
 46c:	00000093          	addi	x1,x0,0
 470:	fff00113          	addi	x2,x0,-1
 474:	00000013          	addi	x0,x0,0
 478:	1a208e63          	beq	x1,x2,634 <fail>
 47c:	00120213          	addi	x4,x4,1 # 1 <_start-0x1ff>
 480:	00200293          	addi	x5,x0,2
 484:	fe5214e3          	bne	x4,x5,46c <test_10+0x8>

00000488 <test_11>:
 488:	00b00193          	addi	x3,x0,11
 48c:	00000213          	addi	x4,x0,0
 490:	00000093          	addi	x1,x0,0
 494:	fff00113          	addi	x2,x0,-1
 498:	00000013          	addi	x0,x0,0
 49c:	00000013          	addi	x0,x0,0
 4a0:	18208a63          	beq	x1,x2,634 <fail>
 4a4:	00120213          	addi	x4,x4,1 # 1 <_start-0x1ff>
 4a8:	00200293          	addi	x5,x0,2
 4ac:	fe5212e3          	bne	x4,x5,490 <test_11+0x8>

000004b0 <test_12>:
 4b0:	00c00193          	addi	x3,x0,12
 4b4:	00000213          	addi	x4,x0,0
 4b8:	00000093          	addi	x1,x0,0
 4bc:	00000013          	addi	x0,x0,0
 4c0:	fff00113          	addi	x2,x0,-1
 4c4:	16208863          	beq	x1,x2,634 <fail>
 4c8:	00120213          	addi	x4,x4,1 # 1 <_start-0x1ff>
 4cc:	00200293          	addi	x5,x0,2
 4d0:	fe5214e3          	bne	x4,x5,4b8 <test_12+0x8>

000004d4 <test_13>:
 4d4:	00d00193          	addi	x3,x0,13
 4d8:	00000213          	addi	x4,x0,0
 4dc:	00000093          	addi	x1,x0,0
 4e0:	00000013          	addi	x0,x0,0
 4e4:	fff00113          	addi	x2,x0,-1
 4e8:	00000013          	addi	x0,x0,0
 4ec:	14208463          	beq	x1,x2,634 <fail>
 4f0:	00120213          	addi	x4,x4,1 # 1 <_start-0x1ff>
 4f4:	00200293          	addi	x5,x0,2
 4f8:	fe5212e3          	bne	x4,x5,4dc <test_13+0x8>

000004fc <test_14>:
 4fc:	00e00193          	addi	x3,x0,14
 500:	00000213          	addi	x4,x0,0
 504:	00000093          	addi	x1,x0,0
 508:	00000013          	addi	x0,x0,0
 50c:	00000013          	addi	x0,x0,0
 510:	fff00113          	addi	x2,x0,-1
 514:	12208063          	beq	x1,x2,634 <fail>
 518:	00120213          	addi	x4,x4,1 # 1 <_start-0x1ff>
 51c:	00200293          	addi	x5,x0,2
 520:	fe5212e3          	bne	x4,x5,504 <test_14+0x8>

00000524 <test_15>:
 524:	00f00193          	addi	x3,x0,15
 528:	00000213          	addi	x4,x0,0
 52c:	00000093          	addi	x1,x0,0
 530:	fff00113          	addi	x2,x0,-1
 534:	10208063          	beq	x1,x2,634 <fail>
 538:	00120213          	addi	x4,x4,1 # 1 <_start-0x1ff>
 53c:	00200293          	addi	x5,x0,2
 540:	fe5216e3          	bne	x4,x5,52c <test_15+0x8>

00000544 <test_16>:
 544:	01000193          	addi	x3,x0,16
 548:	00000213          	addi	x4,x0,0
 54c:	00000093          	addi	x1,x0,0
 550:	fff00113          	addi	x2,x0,-1
 554:	00000013          	addi	x0,x0,0
 558:	0c208e63          	beq	x1,x2,634 <fail>
 55c:	00120213          	addi	x4,x4,1 # 1 <_start-0x1ff>
 560:	00200293          	addi	x5,x0,2
 564:	fe5214e3          	bne	x4,x5,54c <test_16+0x8>

00000568 <test_17>:
 568:	01100193          	addi	x3,x0,17
 56c:	00000213          	addi	x4,x0,0
 570:	00000093          	addi	x1,x0,0
 574:	fff00113          	addi	x2,x0,-1
 578:	00000013          	addi	x0,x0,0
 57c:	00000013          	addi	x0,x0,0
 580:	0a208a63          	beq	x1,x2,634 <fail>
 584:	00120213          	addi	x4,x4,1 # 1 <_start-0x1ff>
 588:	00200293          	addi	x5,x0,2
 58c:	fe5212e3          	bne	x4,x5,570 <test_17+0x8>

00000590 <test_18>:
 590:	01200193          	addi	x3,x0,18
 594:	00000213          	addi	x4,x0,0
 598:	00000093          	addi	x1,x0,0
 59c:	00000013          	addi	x0,x0,0
 5a0:	fff00113          	addi	x2,x0,-1
 5a4:	08208863          	beq	x1,x2,634 <fail>
 5a8:	00120213          	addi	x4,x4,1 # 1 <_start-0x1ff>
 5ac:	00200293          	addi	x5,x0,2
 5b0:	fe5214e3          	bne	x4,x5,598 <test_18+0x8>

000005b4 <test_19>:
 5b4:	01300193          	addi	x3,x0,19
 5b8:	00000213          	addi	x4,x0,0
 5bc:	00000093          	addi	x1,x0,0
 5c0:	00000013          	addi	x0,x0,0
 5c4:	fff00113          	addi	x2,x0,-1
 5c8:	00000013          	addi	x0,x0,0
 5cc:	06208463          	beq	x1,x2,634 <fail>
 5d0:	00120213          	addi	x4,x4,1 # 1 <_start-0x1ff>
 5d4:	00200293          	addi	x5,x0,2
 5d8:	fe5212e3          	bne	x4,x5,5bc <test_19+0x8>

000005dc <test_20>:
 5dc:	01400193          	addi	x3,x0,20
 5e0:	00000213          	addi	x4,x0,0
 5e4:	00000093          	addi	x1,x0,0
 5e8:	00000013          	addi	x0,x0,0
 5ec:	00000013          	addi	x0,x0,0
 5f0:	fff00113          	addi	x2,x0,-1
 5f4:	04208063          	beq	x1,x2,634 <fail>
 5f8:	00120213          	addi	x4,x4,1 # 1 <_start-0x1ff>
 5fc:	00200293          	addi	x5,x0,2
 600:	fe5212e3          	bne	x4,x5,5e4 <test_20+0x8>

00000604 <test_21>:
 604:	01500193          	addi	x3,x0,21
 608:	00100093          	addi	x1,x0,1
 60c:	00000a63          	beq	x0,x0,620 <test_21+0x1c>
 610:	00108093          	addi	x1,x1,1
 614:	00108093          	addi	x1,x1,1
 618:	00108093          	addi	x1,x1,1
 61c:	00108093          	addi	x1,x1,1
 620:	00108093          	addi	x1,x1,1
 624:	00108093          	addi	x1,x1,1
 628:	00300393          	addi	x7,x0,3
 62c:	00709463          	bne	x1,x7,634 <fail>
 630:	02301063          	bne	x0,x3,650 <pass>

00000634 <fail>:
 634:	0ff0000f          	fence	iorw,iorw
 638:	00018063          	beq	x3,x0,638 <fail+0x4>
 63c:	00119193          	slli	x3,x3,0x1
 640:	0011e193          	ori	x3,x3,1
 644:	05d00893          	addi	x17,x0,93
 648:	00018513          	addi	x10,x3,0
 64c:	00000073          	ecall

00000650 <pass>:
 650:	0ff0000f          	fence	iorw,iorw
 654:	00100193          	addi	x3,x0,1
 658:	05d00893          	addi	x17,x0,93
 65c:	00000513          	addi	x10,x0,0
 660:	00000073          	ecall
 664:	c0001073          	unimp
 668:	0000                	.2byte	0x0
 66a:	0000                	.2byte	0x0
 66c:	0000                	.2byte	0x0
 66e:	0000                	.2byte	0x0
 670:	0000                	.2byte	0x0
 672:	0000                	.2byte	0x0
 674:	0000                	.2byte	0x0
 676:	0000                	.2byte	0x0
 678:	0000                	.2byte	0x0
 67a:	0000                	.2byte	0x0
