
rv32ui-p-fence_i:     file format elf32-littleriscv


Disassembly of section .text.init:

00001200 <_start>:
    1200:	0480006f          	j	1248 <reset_vector>

00001204 <trap_vector>:
    1204:	34202f73          	csrr	x30,mcause
    1208:	00800f93          	li	x31,8
    120c:	03ff0863          	beq	x30,x31,123c <write_tohost>
    1210:	00900f93          	li	x31,9
    1214:	03ff0463          	beq	x30,x31,123c <write_tohost>
    1218:	00b00f93          	li	x31,11
    121c:	03ff0063          	beq	x30,x31,123c <write_tohost>
    1220:	00000f13          	li	x30,0
    1224:	000f0463          	beqz	x30,122c <trap_vector+0x28>
    1228:	000f0067          	jr	x30
    122c:	34202f73          	csrr	x30,mcause
    1230:	000f5463          	bgez	x30,1238 <handle_exception>
    1234:	0040006f          	j	1238 <handle_exception>

00001238 <handle_exception>:
    1238:	5391e193          	ori	x3,x3,1337

0000123c <write_tohost>:
    123c:	0000ef17          	auipc	x30,0xe
    1240:	dc3f2223          	sw	x3,-572(x30) # f000 <tohost>
    1244:	ff9ff06f          	j	123c <write_tohost>

00001248 <reset_vector>:
    1248:	00000093          	li	x1,0
    124c:	00000113          	li	x2,0
    1250:	00000193          	li	x3,0
    1254:	00000213          	li	x4,0
    1258:	00000293          	li	x5,0
    125c:	00000313          	li	x6,0
    1260:	00000393          	li	x7,0
    1264:	00000413          	li	x8,0
    1268:	00000493          	li	x9,0
    126c:	00000513          	li	x10,0
    1270:	00000593          	li	x11,0
    1274:	00000613          	li	x12,0
    1278:	00000693          	li	x13,0
    127c:	00000713          	li	x14,0
    1280:	00000793          	li	x15,0
    1284:	00000813          	li	x16,0
    1288:	00000893          	li	x17,0
    128c:	00000913          	li	x18,0
    1290:	00000993          	li	x19,0
    1294:	00000a13          	li	x20,0
    1298:	00000a93          	li	x21,0
    129c:	00000b13          	li	x22,0
    12a0:	00000b93          	li	x23,0
    12a4:	00000c13          	li	x24,0
    12a8:	00000c93          	li	x25,0
    12ac:	00000d13          	li	x26,0
    12b0:	00000d93          	li	x27,0
    12b4:	00000e13          	li	x28,0
    12b8:	00000e93          	li	x29,0
    12bc:	00000f13          	li	x30,0
    12c0:	00000f93          	li	x31,0
    12c4:	f1402573          	csrr	x10,mhartid
    12c8:	00051063          	bnez	x10,12c8 <reset_vector+0x80>
    12cc:	00000297          	auipc	x5,0x0
    12d0:	01028293          	addi	x5,x5,16 # 12dc <reset_vector+0x94>
    12d4:	30529073          	csrw	mtvec,x5
    12d8:	18005073          	csrwi	satp,0
    12dc:	00000297          	auipc	x5,0x0
    12e0:	02028293          	addi	x5,x5,32 # 12fc <reset_vector+0xb4>
    12e4:	30529073          	csrw	mtvec,x5
    12e8:	800002b7          	lui	x5,0x80000
    12ec:	fff28293          	addi	x5,x5,-1 # 7fffffff <fromhost+0x7fff0fbf>
    12f0:	3b029073          	csrw	pmpaddr0,x5
    12f4:	01f00293          	li	x5,31
    12f8:	3a029073          	csrw	pmpcfg0,x5
    12fc:	30405073          	csrwi	mie,0
    1300:	00000297          	auipc	x5,0x0
    1304:	01428293          	addi	x5,x5,20 # 1314 <reset_vector+0xcc>
    1308:	30529073          	csrw	mtvec,x5
    130c:	30205073          	csrwi	medeleg,0
    1310:	30305073          	csrwi	mideleg,0
    1314:	00000193          	li	x3,0
    1318:	00000297          	auipc	x5,0x0
    131c:	eec28293          	addi	x5,x5,-276 # 1204 <trap_vector>
    1320:	30529073          	csrw	mtvec,x5
    1324:	00100513          	li	x10,1
    1328:	01f51513          	slli	x10,x10,0x1f
    132c:	00054c63          	bltz	x10,1344 <reset_vector+0xfc>
    1330:	0ff0000f          	fence
    1334:	00100193          	li	x3,1
    1338:	05d00893          	li	x17,93
    133c:	00000513          	li	x10,0
    1340:	00000073          	ecall
    1344:	00000293          	li	x5,0
    1348:	00028a63          	beqz	x5,135c <reset_vector+0x114>
    134c:	10529073          	csrw	stvec,x5
    1350:	0000b2b7          	lui	x5,0xb
    1354:	10928293          	addi	x5,x5,265 # b109 <_end+0x90e9>
    1358:	30229073          	csrw	medeleg,x5
    135c:	30005073          	csrwi	mstatus,0
    1360:	00000297          	auipc	x5,0x0
    1364:	01428293          	addi	x5,x5,20 # 1374 <reset_vector+0x12c>
    1368:	34129073          	csrw	mepc,x5
    136c:	f1402573          	csrr	x10,mhartid
    1370:	30200073          	mret
    1374:	06f00693          	li	x13,111
    1378:	00001517          	auipc	x10,0x1
    137c:	c8851503          	lh	x10,-888(x10) # 2000 <begin_signature>
    1380:	00001597          	auipc	x11,0x1
    1384:	c8259583          	lh	x11,-894(x11) # 2002 <begin_signature+0x2>
    1388:	00000013          	nop
    138c:	00000013          	nop
    1390:	00000013          	nop
    1394:	00000013          	nop
    1398:	00000013          	nop
    139c:	00000013          	nop
    13a0:	00000013          	nop
    13a4:	00000013          	nop
    13a8:	00000013          	nop
    13ac:	00000013          	nop
    13b0:	00000013          	nop
    13b4:	00000013          	nop
    13b8:	00000013          	nop
    13bc:	00000013          	nop
    13c0:	00001297          	auipc	x5,0x1
    13c4:	c4a29223          	sh	x10,-956(x5) # 2004 <begin_signature+0x4>
    13c8:	00001297          	auipc	x5,0x1
    13cc:	c2b29f23          	sh	x11,-962(x5) # 2006 <begin_signature+0x6>
    13d0:	0000100f          	fence.i
    13d4:	00001797          	auipc	x15,0x1
    13d8:	c3078793          	addi	x15,x15,-976 # 2004 <begin_signature+0x4>
    13dc:	00078367          	jalr	x6,x15

000013e0 <test_2>:
    13e0:	00200193          	li	x3,2
    13e4:	00000013          	nop
    13e8:	1bc00393          	li	x7,444
    13ec:	06769a63          	bne	x13,x7,1460 <fail>
    13f0:	06400713          	li	x14,100
    13f4:	fff70713          	addi	x14,x14,-1
    13f8:	fe071ee3          	bnez	x14,13f4 <test_2+0x14>
    13fc:	00001297          	auipc	x5,0x1
    1400:	c0a29823          	sh	x10,-1008(x5) # 200c <begin_signature+0xc>
    1404:	00001297          	auipc	x5,0x1
    1408:	c0b29523          	sh	x11,-1014(x5) # 200e <begin_signature+0xe>
    140c:	0000100f          	fence.i
    1410:	00000013          	nop
    1414:	00000013          	nop
    1418:	00000013          	nop
    141c:	00000013          	nop
    1420:	00000013          	nop
    1424:	00000013          	nop
    1428:	00000013          	nop
    142c:	00000013          	nop
    1430:	00000013          	nop
    1434:	00000013          	nop
    1438:	00000013          	nop
    143c:	00000013          	nop
    1440:	00001797          	auipc	x15,0x1
    1444:	bcc78793          	addi	x15,x15,-1076 # 200c <begin_signature+0xc>
    1448:	00078367          	jalr	x6,x15

0000144c <test_3>:
    144c:	00300193          	li	x3,3
    1450:	00000013          	nop
    1454:	30900393          	li	x7,777
    1458:	00769463          	bne	x13,x7,1460 <fail>
    145c:	02301063          	bne	x0,x3,147c <pass>

00001460 <fail>:
    1460:	0ff0000f          	fence
    1464:	00018063          	beqz	x3,1464 <fail+0x4>
    1468:	00119193          	slli	x3,x3,0x1
    146c:	0011e193          	ori	x3,x3,1
    1470:	05d00893          	li	x17,93
    1474:	00018513          	mv	x10,x3
    1478:	00000073          	ecall

0000147c <pass>:
    147c:	0ff0000f          	fence
    1480:	00100193          	li	x3,1
    1484:	05d00893          	li	x17,93
    1488:	00000513          	li	x10,0
    148c:	00000073          	ecall
    1490:	c0001073          	unimp
    1494:	0000                	.2byte	0x0
    1496:	0000                	.2byte	0x0
    1498:	0000                	.2byte	0x0
    149a:	0000                	.2byte	0x0
    149c:	0000                	.2byte	0x0
    149e:	0000                	.2byte	0x0
    14a0:	0000                	.2byte	0x0
    14a2:	0000                	.2byte	0x0
    14a4:	0000                	.2byte	0x0
    14a6:	0000                	.2byte	0x0
    14a8:	0000                	.2byte	0x0
    14aa:	0000                	.2byte	0x0
