
rv32ui-p-bge:     file format elf32-littleriscv


Disassembly of section .text.init:

00000200 <_start>:
 200:	0480006f          	jal	x0,248 <reset_vector>

00000204 <trap_vector>:
 204:	34202f73          	csrrs	x30,mcause,x0
 208:	00800f93          	addi	x31,x0,8
 20c:	03ff0863          	beq	x30,x31,23c <write_tohost>
 210:	00900f93          	addi	x31,x0,9
 214:	03ff0463          	beq	x30,x31,23c <write_tohost>
 218:	00b00f93          	addi	x31,x0,11
 21c:	03ff0063          	beq	x30,x31,23c <write_tohost>
 220:	00000f13          	addi	x30,x0,0
 224:	000f0463          	beq	x30,x0,22c <trap_vector+0x28>
 228:	000f0067          	jalr	x0,0(x30)
 22c:	34202f73          	csrrs	x30,mcause,x0
 230:	000f5463          	bge	x30,x0,238 <handle_exception>
 234:	0040006f          	jal	x0,238 <handle_exception>

00000238 <handle_exception>:
 238:	5391e193          	ori	x3,x3,1337

0000023c <write_tohost>:
 23c:	00001f17          	auipc	x30,0x1
 240:	dc3f2223          	sw	x3,-572(x30) # 1000 <tohost>
 244:	ff9ff06f          	jal	x0,23c <write_tohost>

00000248 <reset_vector>:
 248:	00000093          	addi	x1,x0,0
 24c:	00000113          	addi	x2,x0,0
 250:	00000193          	addi	x3,x0,0
 254:	00000213          	addi	x4,x0,0
 258:	00000293          	addi	x5,x0,0
 25c:	00000313          	addi	x6,x0,0
 260:	00000393          	addi	x7,x0,0
 264:	00000413          	addi	x8,x0,0
 268:	00000493          	addi	x9,x0,0
 26c:	00000513          	addi	x10,x0,0
 270:	00000593          	addi	x11,x0,0
 274:	00000613          	addi	x12,x0,0
 278:	00000693          	addi	x13,x0,0
 27c:	00000713          	addi	x14,x0,0
 280:	00000793          	addi	x15,x0,0
 284:	00000813          	addi	x16,x0,0
 288:	00000893          	addi	x17,x0,0
 28c:	00000913          	addi	x18,x0,0
 290:	00000993          	addi	x19,x0,0
 294:	00000a13          	addi	x20,x0,0
 298:	00000a93          	addi	x21,x0,0
 29c:	00000b13          	addi	x22,x0,0
 2a0:	00000b93          	addi	x23,x0,0
 2a4:	00000c13          	addi	x24,x0,0
 2a8:	00000c93          	addi	x25,x0,0
 2ac:	00000d13          	addi	x26,x0,0
 2b0:	00000d93          	addi	x27,x0,0
 2b4:	00000e13          	addi	x28,x0,0
 2b8:	00000e93          	addi	x29,x0,0
 2bc:	00000f13          	addi	x30,x0,0
 2c0:	00000f93          	addi	x31,x0,0
 2c4:	f1402573          	csrrs	x10,mhartid,x0
 2c8:	00051063          	bne	x10,x0,2c8 <reset_vector+0x80>
 2cc:	00000297          	auipc	x5,0x0
 2d0:	01028293          	addi	x5,x5,16 # 2dc <reset_vector+0x94>
 2d4:	30529073          	csrrw	x0,mtvec,x5
 2d8:	18005073          	csrrwi	x0,satp,0
 2dc:	00000297          	auipc	x5,0x0
 2e0:	02028293          	addi	x5,x5,32 # 2fc <reset_vector+0xb4>
 2e4:	30529073          	csrrw	x0,mtvec,x5
 2e8:	800002b7          	lui	x5,0x80000
 2ec:	fff28293          	addi	x5,x5,-1 # 7fffffff <_end+0x7fffdfff>
 2f0:	3b029073          	csrrw	x0,pmpaddr0,x5
 2f4:	01f00293          	addi	x5,x0,31
 2f8:	3a029073          	csrrw	x0,pmpcfg0,x5
 2fc:	30405073          	csrrwi	x0,mie,0
 300:	00000297          	auipc	x5,0x0
 304:	01428293          	addi	x5,x5,20 # 314 <reset_vector+0xcc>
 308:	30529073          	csrrw	x0,mtvec,x5
 30c:	30205073          	csrrwi	x0,medeleg,0
 310:	30305073          	csrrwi	x0,mideleg,0
 314:	00000193          	addi	x3,x0,0
 318:	00000297          	auipc	x5,0x0
 31c:	eec28293          	addi	x5,x5,-276 # 204 <trap_vector>
 320:	30529073          	csrrw	x0,mtvec,x5
 324:	00100513          	addi	x10,x0,1
 328:	01f51513          	slli	x10,x10,0x1f
 32c:	00054c63          	blt	x10,x0,344 <reset_vector+0xfc>
 330:	0ff0000f          	fence	iorw,iorw
 334:	00100193          	addi	x3,x0,1
 338:	05d00893          	addi	x17,x0,93
 33c:	00000513          	addi	x10,x0,0
 340:	00000073          	ecall
 344:	00000293          	addi	x5,x0,0
 348:	00028a63          	beq	x5,x0,35c <reset_vector+0x114>
 34c:	10529073          	csrrw	x0,stvec,x5
 350:	0000b2b7          	lui	x5,0xb
 354:	10928293          	addi	x5,x5,265 # b109 <_end+0x9109>
 358:	30229073          	csrrw	x0,medeleg,x5
 35c:	30005073          	csrrwi	x0,mstatus,0
 360:	00000297          	auipc	x5,0x0
 364:	01428293          	addi	x5,x5,20 # 374 <test_2>
 368:	34129073          	csrrw	x0,mepc,x5
 36c:	f1402573          	csrrs	x10,mhartid,x0
 370:	30200073          	mret

00000374 <test_2>:
 374:	00200193          	addi	x3,x0,2
 378:	00000093          	addi	x1,x0,0
 37c:	00000113          	addi	x2,x0,0
 380:	0020d663          	bge	x1,x2,38c <test_2+0x18>
 384:	30301863          	bne	x0,x3,694 <fail>
 388:	00301663          	bne	x0,x3,394 <test_3>
 38c:	fe20dee3          	bge	x1,x2,388 <test_2+0x14>
 390:	30301263          	bne	x0,x3,694 <fail>

00000394 <test_3>:
 394:	00300193          	addi	x3,x0,3
 398:	00100093          	addi	x1,x0,1
 39c:	00100113          	addi	x2,x0,1
 3a0:	0020d663          	bge	x1,x2,3ac <test_3+0x18>
 3a4:	2e301863          	bne	x0,x3,694 <fail>
 3a8:	00301663          	bne	x0,x3,3b4 <test_4>
 3ac:	fe20dee3          	bge	x1,x2,3a8 <test_3+0x14>
 3b0:	2e301263          	bne	x0,x3,694 <fail>

000003b4 <test_4>:
 3b4:	00400193          	addi	x3,x0,4
 3b8:	fff00093          	addi	x1,x0,-1
 3bc:	fff00113          	addi	x2,x0,-1
 3c0:	0020d663          	bge	x1,x2,3cc <test_4+0x18>
 3c4:	2c301863          	bne	x0,x3,694 <fail>
 3c8:	00301663          	bne	x0,x3,3d4 <test_5>
 3cc:	fe20dee3          	bge	x1,x2,3c8 <test_4+0x14>
 3d0:	2c301263          	bne	x0,x3,694 <fail>

000003d4 <test_5>:
 3d4:	00500193          	addi	x3,x0,5
 3d8:	00100093          	addi	x1,x0,1
 3dc:	00000113          	addi	x2,x0,0
 3e0:	0020d663          	bge	x1,x2,3ec <test_5+0x18>
 3e4:	2a301863          	bne	x0,x3,694 <fail>
 3e8:	00301663          	bne	x0,x3,3f4 <test_6>
 3ec:	fe20dee3          	bge	x1,x2,3e8 <test_5+0x14>
 3f0:	2a301263          	bne	x0,x3,694 <fail>

000003f4 <test_6>:
 3f4:	00600193          	addi	x3,x0,6
 3f8:	00100093          	addi	x1,x0,1
 3fc:	fff00113          	addi	x2,x0,-1
 400:	0020d663          	bge	x1,x2,40c <test_6+0x18>
 404:	28301863          	bne	x0,x3,694 <fail>
 408:	00301663          	bne	x0,x3,414 <test_7>
 40c:	fe20dee3          	bge	x1,x2,408 <test_6+0x14>
 410:	28301263          	bne	x0,x3,694 <fail>

00000414 <test_7>:
 414:	00700193          	addi	x3,x0,7
 418:	fff00093          	addi	x1,x0,-1
 41c:	ffe00113          	addi	x2,x0,-2
 420:	0020d663          	bge	x1,x2,42c <test_7+0x18>
 424:	26301863          	bne	x0,x3,694 <fail>
 428:	00301663          	bne	x0,x3,434 <test_8>
 42c:	fe20dee3          	bge	x1,x2,428 <test_7+0x14>
 430:	26301263          	bne	x0,x3,694 <fail>

00000434 <test_8>:
 434:	00800193          	addi	x3,x0,8
 438:	00000093          	addi	x1,x0,0
 43c:	00100113          	addi	x2,x0,1
 440:	0020d463          	bge	x1,x2,448 <test_8+0x14>
 444:	00301463          	bne	x0,x3,44c <test_8+0x18>
 448:	24301663          	bne	x0,x3,694 <fail>
 44c:	fe20dee3          	bge	x1,x2,448 <test_8+0x14>

00000450 <test_9>:
 450:	00900193          	addi	x3,x0,9
 454:	fff00093          	addi	x1,x0,-1
 458:	00100113          	addi	x2,x0,1
 45c:	0020d463          	bge	x1,x2,464 <test_9+0x14>
 460:	00301463          	bne	x0,x3,468 <test_9+0x18>
 464:	22301863          	bne	x0,x3,694 <fail>
 468:	fe20dee3          	bge	x1,x2,464 <test_9+0x14>

0000046c <test_10>:
 46c:	00a00193          	addi	x3,x0,10
 470:	ffe00093          	addi	x1,x0,-2
 474:	fff00113          	addi	x2,x0,-1
 478:	0020d463          	bge	x1,x2,480 <test_10+0x14>
 47c:	00301463          	bne	x0,x3,484 <test_10+0x18>
 480:	20301a63          	bne	x0,x3,694 <fail>
 484:	fe20dee3          	bge	x1,x2,480 <test_10+0x14>

00000488 <test_11>:
 488:	00b00193          	addi	x3,x0,11
 48c:	ffe00093          	addi	x1,x0,-2
 490:	00100113          	addi	x2,x0,1
 494:	0020d463          	bge	x1,x2,49c <test_11+0x14>
 498:	00301463          	bne	x0,x3,4a0 <test_11+0x18>
 49c:	1e301c63          	bne	x0,x3,694 <fail>
 4a0:	fe20dee3          	bge	x1,x2,49c <test_11+0x14>

000004a4 <test_12>:
 4a4:	00c00193          	addi	x3,x0,12
 4a8:	00000213          	addi	x4,x0,0
 4ac:	fff00093          	addi	x1,x0,-1
 4b0:	00000113          	addi	x2,x0,0
 4b4:	1e20d063          	bge	x1,x2,694 <fail>
 4b8:	00120213          	addi	x4,x4,1 # 1 <_start-0x1ff>
 4bc:	00200293          	addi	x5,x0,2
 4c0:	fe5216e3          	bne	x4,x5,4ac <test_12+0x8>

000004c4 <test_13>:
 4c4:	00d00193          	addi	x3,x0,13
 4c8:	00000213          	addi	x4,x0,0
 4cc:	fff00093          	addi	x1,x0,-1
 4d0:	00000113          	addi	x2,x0,0
 4d4:	00000013          	addi	x0,x0,0
 4d8:	1a20de63          	bge	x1,x2,694 <fail>
 4dc:	00120213          	addi	x4,x4,1 # 1 <_start-0x1ff>
 4e0:	00200293          	addi	x5,x0,2
 4e4:	fe5214e3          	bne	x4,x5,4cc <test_13+0x8>

000004e8 <test_14>:
 4e8:	00e00193          	addi	x3,x0,14
 4ec:	00000213          	addi	x4,x0,0
 4f0:	fff00093          	addi	x1,x0,-1
 4f4:	00000113          	addi	x2,x0,0
 4f8:	00000013          	addi	x0,x0,0
 4fc:	00000013          	addi	x0,x0,0
 500:	1820da63          	bge	x1,x2,694 <fail>
 504:	00120213          	addi	x4,x4,1 # 1 <_start-0x1ff>
 508:	00200293          	addi	x5,x0,2
 50c:	fe5212e3          	bne	x4,x5,4f0 <test_14+0x8>

00000510 <test_15>:
 510:	00f00193          	addi	x3,x0,15
 514:	00000213          	addi	x4,x0,0
 518:	fff00093          	addi	x1,x0,-1
 51c:	00000013          	addi	x0,x0,0
 520:	00000113          	addi	x2,x0,0
 524:	1620d863          	bge	x1,x2,694 <fail>
 528:	00120213          	addi	x4,x4,1 # 1 <_start-0x1ff>
 52c:	00200293          	addi	x5,x0,2
 530:	fe5214e3          	bne	x4,x5,518 <test_15+0x8>

00000534 <test_16>:
 534:	01000193          	addi	x3,x0,16
 538:	00000213          	addi	x4,x0,0
 53c:	fff00093          	addi	x1,x0,-1
 540:	00000013          	addi	x0,x0,0
 544:	00000113          	addi	x2,x0,0
 548:	00000013          	addi	x0,x0,0
 54c:	1420d463          	bge	x1,x2,694 <fail>
 550:	00120213          	addi	x4,x4,1 # 1 <_start-0x1ff>
 554:	00200293          	addi	x5,x0,2
 558:	fe5212e3          	bne	x4,x5,53c <test_16+0x8>

0000055c <test_17>:
 55c:	01100193          	addi	x3,x0,17
 560:	00000213          	addi	x4,x0,0
 564:	fff00093          	addi	x1,x0,-1
 568:	00000013          	addi	x0,x0,0
 56c:	00000013          	addi	x0,x0,0
 570:	00000113          	addi	x2,x0,0
 574:	1220d063          	bge	x1,x2,694 <fail>
 578:	00120213          	addi	x4,x4,1 # 1 <_start-0x1ff>
 57c:	00200293          	addi	x5,x0,2
 580:	fe5212e3          	bne	x4,x5,564 <test_17+0x8>

00000584 <test_18>:
 584:	01200193          	addi	x3,x0,18
 588:	00000213          	addi	x4,x0,0
 58c:	fff00093          	addi	x1,x0,-1
 590:	00000113          	addi	x2,x0,0
 594:	1020d063          	bge	x1,x2,694 <fail>
 598:	00120213          	addi	x4,x4,1 # 1 <_start-0x1ff>
 59c:	00200293          	addi	x5,x0,2
 5a0:	fe5216e3          	bne	x4,x5,58c <test_18+0x8>

000005a4 <test_19>:
 5a4:	01300193          	addi	x3,x0,19
 5a8:	00000213          	addi	x4,x0,0
 5ac:	fff00093          	addi	x1,x0,-1
 5b0:	00000113          	addi	x2,x0,0
 5b4:	00000013          	addi	x0,x0,0
 5b8:	0c20de63          	bge	x1,x2,694 <fail>
 5bc:	00120213          	addi	x4,x4,1 # 1 <_start-0x1ff>
 5c0:	00200293          	addi	x5,x0,2
 5c4:	fe5214e3          	bne	x4,x5,5ac <test_19+0x8>

000005c8 <test_20>:
 5c8:	01400193          	addi	x3,x0,20
 5cc:	00000213          	addi	x4,x0,0
 5d0:	fff00093          	addi	x1,x0,-1
 5d4:	00000113          	addi	x2,x0,0
 5d8:	00000013          	addi	x0,x0,0
 5dc:	00000013          	addi	x0,x0,0
 5e0:	0a20da63          	bge	x1,x2,694 <fail>
 5e4:	00120213          	addi	x4,x4,1 # 1 <_start-0x1ff>
 5e8:	00200293          	addi	x5,x0,2
 5ec:	fe5212e3          	bne	x4,x5,5d0 <test_20+0x8>

000005f0 <test_21>:
 5f0:	01500193          	addi	x3,x0,21
 5f4:	00000213          	addi	x4,x0,0
 5f8:	fff00093          	addi	x1,x0,-1
 5fc:	00000013          	addi	x0,x0,0
 600:	00000113          	addi	x2,x0,0
 604:	0820d863          	bge	x1,x2,694 <fail>
 608:	00120213          	addi	x4,x4,1 # 1 <_start-0x1ff>
 60c:	00200293          	addi	x5,x0,2
 610:	fe5214e3          	bne	x4,x5,5f8 <test_21+0x8>

00000614 <test_22>:
 614:	01600193          	addi	x3,x0,22
 618:	00000213          	addi	x4,x0,0
 61c:	fff00093          	addi	x1,x0,-1
 620:	00000013          	addi	x0,x0,0
 624:	00000113          	addi	x2,x0,0
 628:	00000013          	addi	x0,x0,0
 62c:	0620d463          	bge	x1,x2,694 <fail>
 630:	00120213          	addi	x4,x4,1 # 1 <_start-0x1ff>
 634:	00200293          	addi	x5,x0,2
 638:	fe5212e3          	bne	x4,x5,61c <test_22+0x8>

0000063c <test_23>:
 63c:	01700193          	addi	x3,x0,23
 640:	00000213          	addi	x4,x0,0
 644:	fff00093          	addi	x1,x0,-1
 648:	00000013          	addi	x0,x0,0
 64c:	00000013          	addi	x0,x0,0
 650:	00000113          	addi	x2,x0,0
 654:	0420d063          	bge	x1,x2,694 <fail>
 658:	00120213          	addi	x4,x4,1 # 1 <_start-0x1ff>
 65c:	00200293          	addi	x5,x0,2
 660:	fe5212e3          	bne	x4,x5,644 <test_23+0x8>

00000664 <test_24>:
 664:	01800193          	addi	x3,x0,24
 668:	00100093          	addi	x1,x0,1
 66c:	0000da63          	bge	x1,x0,680 <test_24+0x1c>
 670:	00108093          	addi	x1,x1,1
 674:	00108093          	addi	x1,x1,1
 678:	00108093          	addi	x1,x1,1
 67c:	00108093          	addi	x1,x1,1
 680:	00108093          	addi	x1,x1,1
 684:	00108093          	addi	x1,x1,1
 688:	00300393          	addi	x7,x0,3
 68c:	00709463          	bne	x1,x7,694 <fail>
 690:	02301063          	bne	x0,x3,6b0 <pass>

00000694 <fail>:
 694:	0ff0000f          	fence	iorw,iorw
 698:	00018063          	beq	x3,x0,698 <fail+0x4>
 69c:	00119193          	slli	x3,x3,0x1
 6a0:	0011e193          	ori	x3,x3,1
 6a4:	05d00893          	addi	x17,x0,93
 6a8:	00018513          	addi	x10,x3,0
 6ac:	00000073          	ecall

000006b0 <pass>:
 6b0:	0ff0000f          	fence	iorw,iorw
 6b4:	00100193          	addi	x3,x0,1
 6b8:	05d00893          	addi	x17,x0,93
 6bc:	00000513          	addi	x10,x0,0
 6c0:	00000073          	ecall
 6c4:	c0001073          	unimp
 6c8:	0000                	.2byte	0x0
 6ca:	0000                	.2byte	0x0
 6cc:	0000                	.2byte	0x0
 6ce:	0000                	.2byte	0x0
 6d0:	0000                	.2byte	0x0
 6d2:	0000                	.2byte	0x0
 6d4:	0000                	.2byte	0x0
 6d6:	0000                	.2byte	0x0
 6d8:	0000                	.2byte	0x0
 6da:	0000                	.2byte	0x0
 6dc:	0000                	.2byte	0x0
 6de:	0000                	.2byte	0x0
 6e0:	0000                	.2byte	0x0
 6e2:	0000                	.2byte	0x0
 6e4:	0000                	.2byte	0x0
 6e6:	0000                	.2byte	0x0
 6e8:	0000                	.2byte	0x0
 6ea:	0000                	.2byte	0x0
 6ec:	0000                	.2byte	0x0
 6ee:	0000                	.2byte	0x0
 6f0:	0000                	.2byte	0x0
 6f2:	0000                	.2byte	0x0
 6f4:	0000                	.2byte	0x0
 6f6:	0000                	.2byte	0x0
 6f8:	0000                	.2byte	0x0
 6fa:	0000                	.2byte	0x0
