
rv32ui-p-srl:     file format elf32-littleriscv


Disassembly of section .text.init:

00001200 <_start>:
    1200:	0480006f          	j	1248 <reset_vector>

00001204 <trap_vector>:
    1204:	34202f73          	csrr	x30,mcause
    1208:	00800f93          	li	x31,8
    120c:	03ff0863          	beq	x30,x31,123c <write_tohost>
    1210:	00900f93          	li	x31,9
    1214:	03ff0463          	beq	x30,x31,123c <write_tohost>
    1218:	00b00f93          	li	x31,11
    121c:	03ff0063          	beq	x30,x31,123c <write_tohost>
    1220:	00000f13          	li	x30,0
    1224:	000f0463          	beqz	x30,122c <trap_vector+0x28>
    1228:	000f0067          	jr	x30
    122c:	34202f73          	csrr	x30,mcause
    1230:	000f5463          	bgez	x30,1238 <handle_exception>
    1234:	0040006f          	j	1238 <handle_exception>

00001238 <handle_exception>:
    1238:	5391e193          	ori	x3,x3,1337

0000123c <write_tohost>:
    123c:	0000ef17          	auipc	x30,0xe
    1240:	dc3f2223          	sw	x3,-572(x30) # f000 <tohost>
    1244:	ff9ff06f          	j	123c <write_tohost>

00001248 <reset_vector>:
    1248:	00000093          	li	x1,0
    124c:	00000113          	li	x2,0
    1250:	00000193          	li	x3,0
    1254:	00000213          	li	x4,0
    1258:	00000293          	li	x5,0
    125c:	00000313          	li	x6,0
    1260:	00000393          	li	x7,0
    1264:	00000413          	li	x8,0
    1268:	00000493          	li	x9,0
    126c:	00000513          	li	x10,0
    1270:	00000593          	li	x11,0
    1274:	00000613          	li	x12,0
    1278:	00000693          	li	x13,0
    127c:	00000713          	li	x14,0
    1280:	00000793          	li	x15,0
    1284:	00000813          	li	x16,0
    1288:	00000893          	li	x17,0
    128c:	00000913          	li	x18,0
    1290:	00000993          	li	x19,0
    1294:	00000a13          	li	x20,0
    1298:	00000a93          	li	x21,0
    129c:	00000b13          	li	x22,0
    12a0:	00000b93          	li	x23,0
    12a4:	00000c13          	li	x24,0
    12a8:	00000c93          	li	x25,0
    12ac:	00000d13          	li	x26,0
    12b0:	00000d93          	li	x27,0
    12b4:	00000e13          	li	x28,0
    12b8:	00000e93          	li	x29,0
    12bc:	00000f13          	li	x30,0
    12c0:	00000f93          	li	x31,0
    12c4:	f1402573          	csrr	x10,mhartid
    12c8:	00051063          	bnez	x10,12c8 <reset_vector+0x80>
    12cc:	00000297          	auipc	x5,0x0
    12d0:	01028293          	addi	x5,x5,16 # 12dc <reset_vector+0x94>
    12d4:	30529073          	csrw	mtvec,x5
    12d8:	18005073          	csrwi	satp,0
    12dc:	00000297          	auipc	x5,0x0
    12e0:	02028293          	addi	x5,x5,32 # 12fc <reset_vector+0xb4>
    12e4:	30529073          	csrw	mtvec,x5
    12e8:	800002b7          	lui	x5,0x80000
    12ec:	fff28293          	addi	x5,x5,-1 # 7fffffff <fromhost+0x7fff0fbf>
    12f0:	3b029073          	csrw	pmpaddr0,x5
    12f4:	01f00293          	li	x5,31
    12f8:	3a029073          	csrw	pmpcfg0,x5
    12fc:	30405073          	csrwi	mie,0
    1300:	00000297          	auipc	x5,0x0
    1304:	01428293          	addi	x5,x5,20 # 1314 <reset_vector+0xcc>
    1308:	30529073          	csrw	mtvec,x5
    130c:	30205073          	csrwi	medeleg,0
    1310:	30305073          	csrwi	mideleg,0
    1314:	00000193          	li	x3,0
    1318:	00000297          	auipc	x5,0x0
    131c:	eec28293          	addi	x5,x5,-276 # 1204 <trap_vector>
    1320:	30529073          	csrw	mtvec,x5
    1324:	00100513          	li	x10,1
    1328:	01f51513          	slli	x10,x10,0x1f
    132c:	00054c63          	bltz	x10,1344 <reset_vector+0xfc>
    1330:	0ff0000f          	fence
    1334:	00100193          	li	x3,1
    1338:	05d00893          	li	x17,93
    133c:	00000513          	li	x10,0
    1340:	00000073          	ecall
    1344:	00000293          	li	x5,0
    1348:	00028a63          	beqz	x5,135c <reset_vector+0x114>
    134c:	10529073          	csrw	stvec,x5
    1350:	0000b2b7          	lui	x5,0xb
    1354:	10928293          	addi	x5,x5,265 # b109 <_end+0x9109>
    1358:	30229073          	csrw	medeleg,x5
    135c:	30005073          	csrwi	mstatus,0
    1360:	00000297          	auipc	x5,0x0
    1364:	01428293          	addi	x5,x5,20 # 1374 <test_2>
    1368:	34129073          	csrw	mepc,x5
    136c:	f1402573          	csrr	x10,mhartid
    1370:	30200073          	mret

00001374 <test_2>:
    1374:	00200193          	li	x3,2
    1378:	800000b7          	lui	x1,0x80000
    137c:	00000113          	li	x2,0
    1380:	0020d733          	srl	x14,x1,x2
    1384:	800003b7          	lui	x7,0x80000
    1388:	56771863          	bne	x14,x7,18f8 <fail>

0000138c <test_3>:
    138c:	00300193          	li	x3,3
    1390:	800000b7          	lui	x1,0x80000
    1394:	00100113          	li	x2,1
    1398:	0020d733          	srl	x14,x1,x2
    139c:	400003b7          	lui	x7,0x40000
    13a0:	54771c63          	bne	x14,x7,18f8 <fail>

000013a4 <test_4>:
    13a4:	00400193          	li	x3,4
    13a8:	800000b7          	lui	x1,0x80000
    13ac:	00700113          	li	x2,7
    13b0:	0020d733          	srl	x14,x1,x2
    13b4:	010003b7          	lui	x7,0x1000
    13b8:	54771063          	bne	x14,x7,18f8 <fail>

000013bc <test_5>:
    13bc:	00500193          	li	x3,5
    13c0:	800000b7          	lui	x1,0x80000
    13c4:	00e00113          	li	x2,14
    13c8:	0020d733          	srl	x14,x1,x2
    13cc:	000203b7          	lui	x7,0x20
    13d0:	52771463          	bne	x14,x7,18f8 <fail>

000013d4 <test_6>:
    13d4:	00600193          	li	x3,6
    13d8:	800000b7          	lui	x1,0x80000
    13dc:	00108093          	addi	x1,x1,1 # 80000001 <fromhost+0x7fff0fc1>
    13e0:	01f00113          	li	x2,31
    13e4:	0020d733          	srl	x14,x1,x2
    13e8:	00100393          	li	x7,1
    13ec:	50771663          	bne	x14,x7,18f8 <fail>

000013f0 <test_7>:
    13f0:	00700193          	li	x3,7
    13f4:	fff00093          	li	x1,-1
    13f8:	00000113          	li	x2,0
    13fc:	0020d733          	srl	x14,x1,x2
    1400:	fff00393          	li	x7,-1
    1404:	4e771a63          	bne	x14,x7,18f8 <fail>

00001408 <test_8>:
    1408:	00800193          	li	x3,8
    140c:	fff00093          	li	x1,-1
    1410:	00100113          	li	x2,1
    1414:	0020d733          	srl	x14,x1,x2
    1418:	800003b7          	lui	x7,0x80000
    141c:	fff38393          	addi	x7,x7,-1 # 7fffffff <fromhost+0x7fff0fbf>
    1420:	4c771c63          	bne	x14,x7,18f8 <fail>

00001424 <test_9>:
    1424:	00900193          	li	x3,9
    1428:	fff00093          	li	x1,-1
    142c:	00700113          	li	x2,7
    1430:	0020d733          	srl	x14,x1,x2
    1434:	020003b7          	lui	x7,0x2000
    1438:	fff38393          	addi	x7,x7,-1 # 1ffffff <fromhost+0x1ff0fbf>
    143c:	4a771e63          	bne	x14,x7,18f8 <fail>

00001440 <test_10>:
    1440:	00a00193          	li	x3,10
    1444:	fff00093          	li	x1,-1
    1448:	00e00113          	li	x2,14
    144c:	0020d733          	srl	x14,x1,x2
    1450:	000403b7          	lui	x7,0x40
    1454:	fff38393          	addi	x7,x7,-1 # 3ffff <fromhost+0x30fbf>
    1458:	4a771063          	bne	x14,x7,18f8 <fail>

0000145c <test_11>:
    145c:	00b00193          	li	x3,11
    1460:	fff00093          	li	x1,-1
    1464:	01f00113          	li	x2,31
    1468:	0020d733          	srl	x14,x1,x2
    146c:	00100393          	li	x7,1
    1470:	48771463          	bne	x14,x7,18f8 <fail>

00001474 <test_12>:
    1474:	00c00193          	li	x3,12
    1478:	212120b7          	lui	x1,0x21212
    147c:	12108093          	addi	x1,x1,289 # 21212121 <fromhost+0x212030e1>
    1480:	00000113          	li	x2,0
    1484:	0020d733          	srl	x14,x1,x2
    1488:	212123b7          	lui	x7,0x21212
    148c:	12138393          	addi	x7,x7,289 # 21212121 <fromhost+0x212030e1>
    1490:	46771463          	bne	x14,x7,18f8 <fail>

00001494 <test_13>:
    1494:	00d00193          	li	x3,13
    1498:	212120b7          	lui	x1,0x21212
    149c:	12108093          	addi	x1,x1,289 # 21212121 <fromhost+0x212030e1>
    14a0:	00100113          	li	x2,1
    14a4:	0020d733          	srl	x14,x1,x2
    14a8:	109093b7          	lui	x7,0x10909
    14ac:	09038393          	addi	x7,x7,144 # 10909090 <fromhost+0x108fa050>
    14b0:	44771463          	bne	x14,x7,18f8 <fail>

000014b4 <test_14>:
    14b4:	00e00193          	li	x3,14
    14b8:	212120b7          	lui	x1,0x21212
    14bc:	12108093          	addi	x1,x1,289 # 21212121 <fromhost+0x212030e1>
    14c0:	00700113          	li	x2,7
    14c4:	0020d733          	srl	x14,x1,x2
    14c8:	004243b7          	lui	x7,0x424
    14cc:	24238393          	addi	x7,x7,578 # 424242 <fromhost+0x415202>
    14d0:	42771463          	bne	x14,x7,18f8 <fail>

000014d4 <test_15>:
    14d4:	00f00193          	li	x3,15
    14d8:	212120b7          	lui	x1,0x21212
    14dc:	12108093          	addi	x1,x1,289 # 21212121 <fromhost+0x212030e1>
    14e0:	00e00113          	li	x2,14
    14e4:	0020d733          	srl	x14,x1,x2
    14e8:	000083b7          	lui	x7,0x8
    14ec:	48438393          	addi	x7,x7,1156 # 8484 <_end+0x6484>
    14f0:	40771463          	bne	x14,x7,18f8 <fail>

000014f4 <test_16>:
    14f4:	01000193          	li	x3,16
    14f8:	212120b7          	lui	x1,0x21212
    14fc:	12108093          	addi	x1,x1,289 # 21212121 <fromhost+0x212030e1>
    1500:	01f00113          	li	x2,31
    1504:	0020d733          	srl	x14,x1,x2
    1508:	00000393          	li	x7,0
    150c:	3e771663          	bne	x14,x7,18f8 <fail>

00001510 <test_17>:
    1510:	01100193          	li	x3,17
    1514:	212120b7          	lui	x1,0x21212
    1518:	12108093          	addi	x1,x1,289 # 21212121 <fromhost+0x212030e1>
    151c:	fc000113          	li	x2,-64
    1520:	0020d733          	srl	x14,x1,x2
    1524:	212123b7          	lui	x7,0x21212
    1528:	12138393          	addi	x7,x7,289 # 21212121 <fromhost+0x212030e1>
    152c:	3c771663          	bne	x14,x7,18f8 <fail>

00001530 <test_18>:
    1530:	01200193          	li	x3,18
    1534:	212120b7          	lui	x1,0x21212
    1538:	12108093          	addi	x1,x1,289 # 21212121 <fromhost+0x212030e1>
    153c:	fc100113          	li	x2,-63
    1540:	0020d733          	srl	x14,x1,x2
    1544:	109093b7          	lui	x7,0x10909
    1548:	09038393          	addi	x7,x7,144 # 10909090 <fromhost+0x108fa050>
    154c:	3a771663          	bne	x14,x7,18f8 <fail>

00001550 <test_19>:
    1550:	01300193          	li	x3,19
    1554:	212120b7          	lui	x1,0x21212
    1558:	12108093          	addi	x1,x1,289 # 21212121 <fromhost+0x212030e1>
    155c:	fc700113          	li	x2,-57
    1560:	0020d733          	srl	x14,x1,x2
    1564:	004243b7          	lui	x7,0x424
    1568:	24238393          	addi	x7,x7,578 # 424242 <fromhost+0x415202>
    156c:	38771663          	bne	x14,x7,18f8 <fail>

00001570 <test_20>:
    1570:	01400193          	li	x3,20
    1574:	212120b7          	lui	x1,0x21212
    1578:	12108093          	addi	x1,x1,289 # 21212121 <fromhost+0x212030e1>
    157c:	fce00113          	li	x2,-50
    1580:	0020d733          	srl	x14,x1,x2
    1584:	000083b7          	lui	x7,0x8
    1588:	48438393          	addi	x7,x7,1156 # 8484 <_end+0x6484>
    158c:	36771663          	bne	x14,x7,18f8 <fail>

00001590 <test_21>:
    1590:	01500193          	li	x3,21
    1594:	212120b7          	lui	x1,0x21212
    1598:	12108093          	addi	x1,x1,289 # 21212121 <fromhost+0x212030e1>
    159c:	fff00113          	li	x2,-1
    15a0:	0020d733          	srl	x14,x1,x2
    15a4:	00000393          	li	x7,0
    15a8:	34771863          	bne	x14,x7,18f8 <fail>

000015ac <test_22>:
    15ac:	01600193          	li	x3,22
    15b0:	800000b7          	lui	x1,0x80000
    15b4:	00700113          	li	x2,7
    15b8:	0020d0b3          	srl	x1,x1,x2
    15bc:	010003b7          	lui	x7,0x1000
    15c0:	32709c63          	bne	x1,x7,18f8 <fail>

000015c4 <test_23>:
    15c4:	01700193          	li	x3,23
    15c8:	800000b7          	lui	x1,0x80000
    15cc:	00e00113          	li	x2,14
    15d0:	0020d133          	srl	x2,x1,x2
    15d4:	000203b7          	lui	x7,0x20
    15d8:	32711063          	bne	x2,x7,18f8 <fail>

000015dc <test_24>:
    15dc:	01800193          	li	x3,24
    15e0:	00700093          	li	x1,7
    15e4:	0010d0b3          	srl	x1,x1,x1
    15e8:	00000393          	li	x7,0
    15ec:	30709663          	bne	x1,x7,18f8 <fail>

000015f0 <test_25>:
    15f0:	01900193          	li	x3,25
    15f4:	00000213          	li	x4,0
    15f8:	800000b7          	lui	x1,0x80000
    15fc:	00700113          	li	x2,7
    1600:	0020d733          	srl	x14,x1,x2
    1604:	00070313          	mv	x6,x14
    1608:	00120213          	addi	x4,x4,1 # 1 <_start-0x11ff>
    160c:	00200293          	li	x5,2
    1610:	fe5214e3          	bne	x4,x5,15f8 <test_25+0x8>
    1614:	010003b7          	lui	x7,0x1000
    1618:	2e731063          	bne	x6,x7,18f8 <fail>

0000161c <test_26>:
    161c:	01a00193          	li	x3,26
    1620:	00000213          	li	x4,0
    1624:	800000b7          	lui	x1,0x80000
    1628:	00e00113          	li	x2,14
    162c:	0020d733          	srl	x14,x1,x2
    1630:	00000013          	nop
    1634:	00070313          	mv	x6,x14
    1638:	00120213          	addi	x4,x4,1 # 1 <_start-0x11ff>
    163c:	00200293          	li	x5,2
    1640:	fe5212e3          	bne	x4,x5,1624 <test_26+0x8>
    1644:	000203b7          	lui	x7,0x20
    1648:	2a731863          	bne	x6,x7,18f8 <fail>

0000164c <test_27>:
    164c:	01b00193          	li	x3,27
    1650:	00000213          	li	x4,0
    1654:	800000b7          	lui	x1,0x80000
    1658:	01f00113          	li	x2,31
    165c:	0020d733          	srl	x14,x1,x2
    1660:	00000013          	nop
    1664:	00000013          	nop
    1668:	00070313          	mv	x6,x14
    166c:	00120213          	addi	x4,x4,1 # 1 <_start-0x11ff>
    1670:	00200293          	li	x5,2
    1674:	fe5210e3          	bne	x4,x5,1654 <test_27+0x8>
    1678:	00100393          	li	x7,1
    167c:	26731e63          	bne	x6,x7,18f8 <fail>

00001680 <test_28>:
    1680:	01c00193          	li	x3,28
    1684:	00000213          	li	x4,0
    1688:	800000b7          	lui	x1,0x80000
    168c:	00700113          	li	x2,7
    1690:	0020d733          	srl	x14,x1,x2
    1694:	00120213          	addi	x4,x4,1 # 1 <_start-0x11ff>
    1698:	00200293          	li	x5,2
    169c:	fe5216e3          	bne	x4,x5,1688 <test_28+0x8>
    16a0:	010003b7          	lui	x7,0x1000
    16a4:	24771a63          	bne	x14,x7,18f8 <fail>

000016a8 <test_29>:
    16a8:	01d00193          	li	x3,29
    16ac:	00000213          	li	x4,0
    16b0:	800000b7          	lui	x1,0x80000
    16b4:	00e00113          	li	x2,14
    16b8:	00000013          	nop
    16bc:	0020d733          	srl	x14,x1,x2
    16c0:	00120213          	addi	x4,x4,1 # 1 <_start-0x11ff>
    16c4:	00200293          	li	x5,2
    16c8:	fe5214e3          	bne	x4,x5,16b0 <test_29+0x8>
    16cc:	000203b7          	lui	x7,0x20
    16d0:	22771463          	bne	x14,x7,18f8 <fail>

000016d4 <test_30>:
    16d4:	01e00193          	li	x3,30
    16d8:	00000213          	li	x4,0
    16dc:	800000b7          	lui	x1,0x80000
    16e0:	01f00113          	li	x2,31
    16e4:	00000013          	nop
    16e8:	00000013          	nop
    16ec:	0020d733          	srl	x14,x1,x2
    16f0:	00120213          	addi	x4,x4,1 # 1 <_start-0x11ff>
    16f4:	00200293          	li	x5,2
    16f8:	fe5212e3          	bne	x4,x5,16dc <test_30+0x8>
    16fc:	00100393          	li	x7,1
    1700:	1e771c63          	bne	x14,x7,18f8 <fail>

00001704 <test_31>:
    1704:	01f00193          	li	x3,31
    1708:	00000213          	li	x4,0
    170c:	800000b7          	lui	x1,0x80000
    1710:	00000013          	nop
    1714:	00700113          	li	x2,7
    1718:	0020d733          	srl	x14,x1,x2
    171c:	00120213          	addi	x4,x4,1 # 1 <_start-0x11ff>
    1720:	00200293          	li	x5,2
    1724:	fe5214e3          	bne	x4,x5,170c <test_31+0x8>
    1728:	010003b7          	lui	x7,0x1000
    172c:	1c771663          	bne	x14,x7,18f8 <fail>

00001730 <test_32>:
    1730:	02000193          	li	x3,32
    1734:	00000213          	li	x4,0
    1738:	800000b7          	lui	x1,0x80000
    173c:	00000013          	nop
    1740:	00e00113          	li	x2,14
    1744:	00000013          	nop
    1748:	0020d733          	srl	x14,x1,x2
    174c:	00120213          	addi	x4,x4,1 # 1 <_start-0x11ff>
    1750:	00200293          	li	x5,2
    1754:	fe5212e3          	bne	x4,x5,1738 <test_32+0x8>
    1758:	000203b7          	lui	x7,0x20
    175c:	18771e63          	bne	x14,x7,18f8 <fail>

00001760 <test_33>:
    1760:	02100193          	li	x3,33
    1764:	00000213          	li	x4,0
    1768:	800000b7          	lui	x1,0x80000
    176c:	00000013          	nop
    1770:	00000013          	nop
    1774:	01f00113          	li	x2,31
    1778:	0020d733          	srl	x14,x1,x2
    177c:	00120213          	addi	x4,x4,1 # 1 <_start-0x11ff>
    1780:	00200293          	li	x5,2
    1784:	fe5212e3          	bne	x4,x5,1768 <test_33+0x8>
    1788:	00100393          	li	x7,1
    178c:	16771663          	bne	x14,x7,18f8 <fail>

00001790 <test_34>:
    1790:	02200193          	li	x3,34
    1794:	00000213          	li	x4,0
    1798:	00700113          	li	x2,7
    179c:	800000b7          	lui	x1,0x80000
    17a0:	0020d733          	srl	x14,x1,x2
    17a4:	00120213          	addi	x4,x4,1 # 1 <_start-0x11ff>
    17a8:	00200293          	li	x5,2
    17ac:	fe5216e3          	bne	x4,x5,1798 <test_34+0x8>
    17b0:	010003b7          	lui	x7,0x1000
    17b4:	14771263          	bne	x14,x7,18f8 <fail>

000017b8 <test_35>:
    17b8:	02300193          	li	x3,35
    17bc:	00000213          	li	x4,0
    17c0:	00e00113          	li	x2,14
    17c4:	800000b7          	lui	x1,0x80000
    17c8:	00000013          	nop
    17cc:	0020d733          	srl	x14,x1,x2
    17d0:	00120213          	addi	x4,x4,1 # 1 <_start-0x11ff>
    17d4:	00200293          	li	x5,2
    17d8:	fe5214e3          	bne	x4,x5,17c0 <test_35+0x8>
    17dc:	000203b7          	lui	x7,0x20
    17e0:	10771c63          	bne	x14,x7,18f8 <fail>

000017e4 <test_36>:
    17e4:	02400193          	li	x3,36
    17e8:	00000213          	li	x4,0
    17ec:	01f00113          	li	x2,31
    17f0:	800000b7          	lui	x1,0x80000
    17f4:	00000013          	nop
    17f8:	00000013          	nop
    17fc:	0020d733          	srl	x14,x1,x2
    1800:	00120213          	addi	x4,x4,1 # 1 <_start-0x11ff>
    1804:	00200293          	li	x5,2
    1808:	fe5212e3          	bne	x4,x5,17ec <test_36+0x8>
    180c:	00100393          	li	x7,1
    1810:	0e771463          	bne	x14,x7,18f8 <fail>

00001814 <test_37>:
    1814:	02500193          	li	x3,37
    1818:	00000213          	li	x4,0
    181c:	00700113          	li	x2,7
    1820:	00000013          	nop
    1824:	800000b7          	lui	x1,0x80000
    1828:	0020d733          	srl	x14,x1,x2
    182c:	00120213          	addi	x4,x4,1 # 1 <_start-0x11ff>
    1830:	00200293          	li	x5,2
    1834:	fe5214e3          	bne	x4,x5,181c <test_37+0x8>
    1838:	010003b7          	lui	x7,0x1000
    183c:	0a771e63          	bne	x14,x7,18f8 <fail>

00001840 <test_38>:
    1840:	02600193          	li	x3,38
    1844:	00000213          	li	x4,0
    1848:	00e00113          	li	x2,14
    184c:	00000013          	nop
    1850:	800000b7          	lui	x1,0x80000
    1854:	00000013          	nop
    1858:	0020d733          	srl	x14,x1,x2
    185c:	00120213          	addi	x4,x4,1 # 1 <_start-0x11ff>
    1860:	00200293          	li	x5,2
    1864:	fe5212e3          	bne	x4,x5,1848 <test_38+0x8>
    1868:	000203b7          	lui	x7,0x20
    186c:	08771663          	bne	x14,x7,18f8 <fail>

00001870 <test_39>:
    1870:	02700193          	li	x3,39
    1874:	00000213          	li	x4,0
    1878:	01f00113          	li	x2,31
    187c:	00000013          	nop
    1880:	00000013          	nop
    1884:	800000b7          	lui	x1,0x80000
    1888:	0020d733          	srl	x14,x1,x2
    188c:	00120213          	addi	x4,x4,1 # 1 <_start-0x11ff>
    1890:	00200293          	li	x5,2
    1894:	fe5212e3          	bne	x4,x5,1878 <test_39+0x8>
    1898:	00100393          	li	x7,1
    189c:	04771e63          	bne	x14,x7,18f8 <fail>

000018a0 <test_40>:
    18a0:	02800193          	li	x3,40
    18a4:	00f00093          	li	x1,15
    18a8:	00105133          	srl	x2,x0,x1
    18ac:	00000393          	li	x7,0
    18b0:	04711463          	bne	x2,x7,18f8 <fail>

000018b4 <test_41>:
    18b4:	02900193          	li	x3,41
    18b8:	02000093          	li	x1,32
    18bc:	0000d133          	srl	x2,x1,x0
    18c0:	02000393          	li	x7,32
    18c4:	02711a63          	bne	x2,x7,18f8 <fail>

000018c8 <test_42>:
    18c8:	02a00193          	li	x3,42
    18cc:	000050b3          	srl	x1,x0,x0
    18d0:	00000393          	li	x7,0
    18d4:	02709263          	bne	x1,x7,18f8 <fail>

000018d8 <test_43>:
    18d8:	02b00193          	li	x3,43
    18dc:	40000093          	li	x1,1024
    18e0:	00001137          	lui	x2,0x1
    18e4:	80010113          	addi	x2,x2,-2048 # 800 <_start-0xa00>
    18e8:	0020d033          	srl	x0,x1,x2
    18ec:	00000393          	li	x7,0
    18f0:	00701463          	bne	x0,x7,18f8 <fail>
    18f4:	02301063          	bne	x0,x3,1914 <pass>

000018f8 <fail>:
    18f8:	0ff0000f          	fence
    18fc:	00018063          	beqz	x3,18fc <fail+0x4>
    1900:	00119193          	slli	x3,x3,0x1
    1904:	0011e193          	ori	x3,x3,1
    1908:	05d00893          	li	x17,93
    190c:	00018513          	mv	x10,x3
    1910:	00000073          	ecall

00001914 <pass>:
    1914:	0ff0000f          	fence
    1918:	00100193          	li	x3,1
    191c:	05d00893          	li	x17,93
    1920:	00000513          	li	x10,0
    1924:	00000073          	ecall
    1928:	c0001073          	unimp
    192c:	0000                	.2byte	0x0
    192e:	0000                	.2byte	0x0
    1930:	0000                	.2byte	0x0
    1932:	0000                	.2byte	0x0
    1934:	0000                	.2byte	0x0
    1936:	0000                	.2byte	0x0
    1938:	0000                	.2byte	0x0
    193a:	0000                	.2byte	0x0
