
rv32ui-p-bne:     file format elf32-littleriscv


Disassembly of section .text.init:

00000200 <_start>:
 200:	0480006f          	jal	x0,248 <reset_vector>

00000204 <trap_vector>:
 204:	34202f73          	csrrs	x30,mcause,x0
 208:	00800f93          	addi	x31,x0,8
 20c:	03ff0863          	beq	x30,x31,23c <write_tohost>
 210:	00900f93          	addi	x31,x0,9
 214:	03ff0463          	beq	x30,x31,23c <write_tohost>
 218:	00b00f93          	addi	x31,x0,11
 21c:	03ff0063          	beq	x30,x31,23c <write_tohost>
 220:	00000f13          	addi	x30,x0,0
 224:	000f0463          	beq	x30,x0,22c <trap_vector+0x28>
 228:	000f0067          	jalr	x0,0(x30)
 22c:	34202f73          	csrrs	x30,mcause,x0
 230:	000f5463          	bge	x30,x0,238 <handle_exception>
 234:	0040006f          	jal	x0,238 <handle_exception>

00000238 <handle_exception>:
 238:	5391e193          	ori	x3,x3,1337

0000023c <write_tohost>:
 23c:	00001f17          	auipc	x30,0x1
 240:	dc3f2223          	sw	x3,-572(x30) # 1000 <tohost>
 244:	ff9ff06f          	jal	x0,23c <write_tohost>

00000248 <reset_vector>:
 248:	00000093          	addi	x1,x0,0
 24c:	00000113          	addi	x2,x0,0
 250:	00000193          	addi	x3,x0,0
 254:	00000213          	addi	x4,x0,0
 258:	00000293          	addi	x5,x0,0
 25c:	00000313          	addi	x6,x0,0
 260:	00000393          	addi	x7,x0,0
 264:	00000413          	addi	x8,x0,0
 268:	00000493          	addi	x9,x0,0
 26c:	00000513          	addi	x10,x0,0
 270:	00000593          	addi	x11,x0,0
 274:	00000613          	addi	x12,x0,0
 278:	00000693          	addi	x13,x0,0
 27c:	00000713          	addi	x14,x0,0
 280:	00000793          	addi	x15,x0,0
 284:	00000813          	addi	x16,x0,0
 288:	00000893          	addi	x17,x0,0
 28c:	00000913          	addi	x18,x0,0
 290:	00000993          	addi	x19,x0,0
 294:	00000a13          	addi	x20,x0,0
 298:	00000a93          	addi	x21,x0,0
 29c:	00000b13          	addi	x22,x0,0
 2a0:	00000b93          	addi	x23,x0,0
 2a4:	00000c13          	addi	x24,x0,0
 2a8:	00000c93          	addi	x25,x0,0
 2ac:	00000d13          	addi	x26,x0,0
 2b0:	00000d93          	addi	x27,x0,0
 2b4:	00000e13          	addi	x28,x0,0
 2b8:	00000e93          	addi	x29,x0,0
 2bc:	00000f13          	addi	x30,x0,0
 2c0:	00000f93          	addi	x31,x0,0
 2c4:	f1402573          	csrrs	x10,mhartid,x0
 2c8:	00051063          	bne	x10,x0,2c8 <reset_vector+0x80>
 2cc:	00000297          	auipc	x5,0x0
 2d0:	01028293          	addi	x5,x5,16 # 2dc <reset_vector+0x94>
 2d4:	30529073          	csrrw	x0,mtvec,x5
 2d8:	18005073          	csrrwi	x0,satp,0
 2dc:	00000297          	auipc	x5,0x0
 2e0:	02028293          	addi	x5,x5,32 # 2fc <reset_vector+0xb4>
 2e4:	30529073          	csrrw	x0,mtvec,x5
 2e8:	800002b7          	lui	x5,0x80000
 2ec:	fff28293          	addi	x5,x5,-1 # 7fffffff <_end+0x7fffdfff>
 2f0:	3b029073          	csrrw	x0,pmpaddr0,x5
 2f4:	01f00293          	addi	x5,x0,31
 2f8:	3a029073          	csrrw	x0,pmpcfg0,x5
 2fc:	30405073          	csrrwi	x0,mie,0
 300:	00000297          	auipc	x5,0x0
 304:	01428293          	addi	x5,x5,20 # 314 <reset_vector+0xcc>
 308:	30529073          	csrrw	x0,mtvec,x5
 30c:	30205073          	csrrwi	x0,medeleg,0
 310:	30305073          	csrrwi	x0,mideleg,0
 314:	00000193          	addi	x3,x0,0
 318:	00000297          	auipc	x5,0x0
 31c:	eec28293          	addi	x5,x5,-276 # 204 <trap_vector>
 320:	30529073          	csrrw	x0,mtvec,x5
 324:	00100513          	addi	x10,x0,1
 328:	01f51513          	slli	x10,x10,0x1f
 32c:	00054c63          	blt	x10,x0,344 <reset_vector+0xfc>
 330:	0ff0000f          	fence	iorw,iorw
 334:	00100193          	addi	x3,x0,1
 338:	05d00893          	addi	x17,x0,93
 33c:	00000513          	addi	x10,x0,0
 340:	00000073          	ecall
 344:	00000293          	addi	x5,x0,0
 348:	00028a63          	beq	x5,x0,35c <reset_vector+0x114>
 34c:	10529073          	csrrw	x0,stvec,x5
 350:	0000b2b7          	lui	x5,0xb
 354:	10928293          	addi	x5,x5,265 # b109 <_end+0x9109>
 358:	30229073          	csrrw	x0,medeleg,x5
 35c:	30005073          	csrrwi	x0,mstatus,0
 360:	00000297          	auipc	x5,0x0
 364:	01428293          	addi	x5,x5,20 # 374 <test_2>
 368:	34129073          	csrrw	x0,mepc,x5
 36c:	f1402573          	csrrs	x10,mhartid,x0
 370:	30200073          	mret

00000374 <test_2>:
 374:	00200193          	addi	x3,x0,2
 378:	00000093          	addi	x1,x0,0
 37c:	00100113          	addi	x2,x0,1
 380:	00209663          	bne	x1,x2,38c <test_2+0x18>
 384:	2a301a63          	bne	x0,x3,638 <fail>
 388:	00301663          	bne	x0,x3,394 <test_3>
 38c:	fe209ee3          	bne	x1,x2,388 <test_2+0x14>
 390:	2a301463          	bne	x0,x3,638 <fail>

00000394 <test_3>:
 394:	00300193          	addi	x3,x0,3
 398:	00100093          	addi	x1,x0,1
 39c:	00000113          	addi	x2,x0,0
 3a0:	00209663          	bne	x1,x2,3ac <test_3+0x18>
 3a4:	28301a63          	bne	x0,x3,638 <fail>
 3a8:	00301663          	bne	x0,x3,3b4 <test_4>
 3ac:	fe209ee3          	bne	x1,x2,3a8 <test_3+0x14>
 3b0:	28301463          	bne	x0,x3,638 <fail>

000003b4 <test_4>:
 3b4:	00400193          	addi	x3,x0,4
 3b8:	fff00093          	addi	x1,x0,-1
 3bc:	00100113          	addi	x2,x0,1
 3c0:	00209663          	bne	x1,x2,3cc <test_4+0x18>
 3c4:	26301a63          	bne	x0,x3,638 <fail>
 3c8:	00301663          	bne	x0,x3,3d4 <test_5>
 3cc:	fe209ee3          	bne	x1,x2,3c8 <test_4+0x14>
 3d0:	26301463          	bne	x0,x3,638 <fail>

000003d4 <test_5>:
 3d4:	00500193          	addi	x3,x0,5
 3d8:	00100093          	addi	x1,x0,1
 3dc:	fff00113          	addi	x2,x0,-1
 3e0:	00209663          	bne	x1,x2,3ec <test_5+0x18>
 3e4:	24301a63          	bne	x0,x3,638 <fail>
 3e8:	00301663          	bne	x0,x3,3f4 <test_6>
 3ec:	fe209ee3          	bne	x1,x2,3e8 <test_5+0x14>
 3f0:	24301463          	bne	x0,x3,638 <fail>

000003f4 <test_6>:
 3f4:	00600193          	addi	x3,x0,6
 3f8:	00000093          	addi	x1,x0,0
 3fc:	00000113          	addi	x2,x0,0
 400:	00209463          	bne	x1,x2,408 <test_6+0x14>
 404:	00301463          	bne	x0,x3,40c <test_6+0x18>
 408:	22301863          	bne	x0,x3,638 <fail>
 40c:	fe209ee3          	bne	x1,x2,408 <test_6+0x14>

00000410 <test_7>:
 410:	00700193          	addi	x3,x0,7
 414:	00100093          	addi	x1,x0,1
 418:	00100113          	addi	x2,x0,1
 41c:	00209463          	bne	x1,x2,424 <test_7+0x14>
 420:	00301463          	bne	x0,x3,428 <test_7+0x18>
 424:	20301a63          	bne	x0,x3,638 <fail>
 428:	fe209ee3          	bne	x1,x2,424 <test_7+0x14>

0000042c <test_8>:
 42c:	00800193          	addi	x3,x0,8
 430:	fff00093          	addi	x1,x0,-1
 434:	fff00113          	addi	x2,x0,-1
 438:	00209463          	bne	x1,x2,440 <test_8+0x14>
 43c:	00301463          	bne	x0,x3,444 <test_8+0x18>
 440:	1e301c63          	bne	x0,x3,638 <fail>
 444:	fe209ee3          	bne	x1,x2,440 <test_8+0x14>

00000448 <test_9>:
 448:	00900193          	addi	x3,x0,9
 44c:	00000213          	addi	x4,x0,0
 450:	00000093          	addi	x1,x0,0
 454:	00000113          	addi	x2,x0,0
 458:	1e209063          	bne	x1,x2,638 <fail>
 45c:	00120213          	addi	x4,x4,1 # 1 <_start-0x1ff>
 460:	00200293          	addi	x5,x0,2
 464:	fe5216e3          	bne	x4,x5,450 <test_9+0x8>

00000468 <test_10>:
 468:	00a00193          	addi	x3,x0,10
 46c:	00000213          	addi	x4,x0,0
 470:	00000093          	addi	x1,x0,0
 474:	00000113          	addi	x2,x0,0
 478:	00000013          	addi	x0,x0,0
 47c:	1a209e63          	bne	x1,x2,638 <fail>
 480:	00120213          	addi	x4,x4,1 # 1 <_start-0x1ff>
 484:	00200293          	addi	x5,x0,2
 488:	fe5214e3          	bne	x4,x5,470 <test_10+0x8>

0000048c <test_11>:
 48c:	00b00193          	addi	x3,x0,11
 490:	00000213          	addi	x4,x0,0
 494:	00000093          	addi	x1,x0,0
 498:	00000113          	addi	x2,x0,0
 49c:	00000013          	addi	x0,x0,0
 4a0:	00000013          	addi	x0,x0,0
 4a4:	18209a63          	bne	x1,x2,638 <fail>
 4a8:	00120213          	addi	x4,x4,1 # 1 <_start-0x1ff>
 4ac:	00200293          	addi	x5,x0,2
 4b0:	fe5212e3          	bne	x4,x5,494 <test_11+0x8>

000004b4 <test_12>:
 4b4:	00c00193          	addi	x3,x0,12
 4b8:	00000213          	addi	x4,x0,0
 4bc:	00000093          	addi	x1,x0,0
 4c0:	00000013          	addi	x0,x0,0
 4c4:	00000113          	addi	x2,x0,0
 4c8:	16209863          	bne	x1,x2,638 <fail>
 4cc:	00120213          	addi	x4,x4,1 # 1 <_start-0x1ff>
 4d0:	00200293          	addi	x5,x0,2
 4d4:	fe5214e3          	bne	x4,x5,4bc <test_12+0x8>

000004d8 <test_13>:
 4d8:	00d00193          	addi	x3,x0,13
 4dc:	00000213          	addi	x4,x0,0
 4e0:	00000093          	addi	x1,x0,0
 4e4:	00000013          	addi	x0,x0,0
 4e8:	00000113          	addi	x2,x0,0
 4ec:	00000013          	addi	x0,x0,0
 4f0:	14209463          	bne	x1,x2,638 <fail>
 4f4:	00120213          	addi	x4,x4,1 # 1 <_start-0x1ff>
 4f8:	00200293          	addi	x5,x0,2
 4fc:	fe5212e3          	bne	x4,x5,4e0 <test_13+0x8>

00000500 <test_14>:
 500:	00e00193          	addi	x3,x0,14
 504:	00000213          	addi	x4,x0,0
 508:	00000093          	addi	x1,x0,0
 50c:	00000013          	addi	x0,x0,0
 510:	00000013          	addi	x0,x0,0
 514:	00000113          	addi	x2,x0,0
 518:	12209063          	bne	x1,x2,638 <fail>
 51c:	00120213          	addi	x4,x4,1 # 1 <_start-0x1ff>
 520:	00200293          	addi	x5,x0,2
 524:	fe5212e3          	bne	x4,x5,508 <test_14+0x8>

00000528 <test_15>:
 528:	00f00193          	addi	x3,x0,15
 52c:	00000213          	addi	x4,x0,0
 530:	00000093          	addi	x1,x0,0
 534:	00000113          	addi	x2,x0,0
 538:	10209063          	bne	x1,x2,638 <fail>
 53c:	00120213          	addi	x4,x4,1 # 1 <_start-0x1ff>
 540:	00200293          	addi	x5,x0,2
 544:	fe5216e3          	bne	x4,x5,530 <test_15+0x8>

00000548 <test_16>:
 548:	01000193          	addi	x3,x0,16
 54c:	00000213          	addi	x4,x0,0
 550:	00000093          	addi	x1,x0,0
 554:	00000113          	addi	x2,x0,0
 558:	00000013          	addi	x0,x0,0
 55c:	0c209e63          	bne	x1,x2,638 <fail>
 560:	00120213          	addi	x4,x4,1 # 1 <_start-0x1ff>
 564:	00200293          	addi	x5,x0,2
 568:	fe5214e3          	bne	x4,x5,550 <test_16+0x8>

0000056c <test_17>:
 56c:	01100193          	addi	x3,x0,17
 570:	00000213          	addi	x4,x0,0
 574:	00000093          	addi	x1,x0,0
 578:	00000113          	addi	x2,x0,0
 57c:	00000013          	addi	x0,x0,0
 580:	00000013          	addi	x0,x0,0
 584:	0a209a63          	bne	x1,x2,638 <fail>
 588:	00120213          	addi	x4,x4,1 # 1 <_start-0x1ff>
 58c:	00200293          	addi	x5,x0,2
 590:	fe5212e3          	bne	x4,x5,574 <test_17+0x8>

00000594 <test_18>:
 594:	01200193          	addi	x3,x0,18
 598:	00000213          	addi	x4,x0,0
 59c:	00000093          	addi	x1,x0,0
 5a0:	00000013          	addi	x0,x0,0
 5a4:	00000113          	addi	x2,x0,0
 5a8:	08209863          	bne	x1,x2,638 <fail>
 5ac:	00120213          	addi	x4,x4,1 # 1 <_start-0x1ff>
 5b0:	00200293          	addi	x5,x0,2
 5b4:	fe5214e3          	bne	x4,x5,59c <test_18+0x8>

000005b8 <test_19>:
 5b8:	01300193          	addi	x3,x0,19
 5bc:	00000213          	addi	x4,x0,0
 5c0:	00000093          	addi	x1,x0,0
 5c4:	00000013          	addi	x0,x0,0
 5c8:	00000113          	addi	x2,x0,0
 5cc:	00000013          	addi	x0,x0,0
 5d0:	06209463          	bne	x1,x2,638 <fail>
 5d4:	00120213          	addi	x4,x4,1 # 1 <_start-0x1ff>
 5d8:	00200293          	addi	x5,x0,2
 5dc:	fe5212e3          	bne	x4,x5,5c0 <test_19+0x8>

000005e0 <test_20>:
 5e0:	01400193          	addi	x3,x0,20
 5e4:	00000213          	addi	x4,x0,0
 5e8:	00000093          	addi	x1,x0,0
 5ec:	00000013          	addi	x0,x0,0
 5f0:	00000013          	addi	x0,x0,0
 5f4:	00000113          	addi	x2,x0,0
 5f8:	04209063          	bne	x1,x2,638 <fail>
 5fc:	00120213          	addi	x4,x4,1 # 1 <_start-0x1ff>
 600:	00200293          	addi	x5,x0,2
 604:	fe5212e3          	bne	x4,x5,5e8 <test_20+0x8>

00000608 <test_21>:
 608:	01500193          	addi	x3,x0,21
 60c:	00100093          	addi	x1,x0,1
 610:	00009a63          	bne	x1,x0,624 <test_21+0x1c>
 614:	00108093          	addi	x1,x1,1
 618:	00108093          	addi	x1,x1,1
 61c:	00108093          	addi	x1,x1,1
 620:	00108093          	addi	x1,x1,1
 624:	00108093          	addi	x1,x1,1
 628:	00108093          	addi	x1,x1,1
 62c:	00300393          	addi	x7,x0,3
 630:	00709463          	bne	x1,x7,638 <fail>
 634:	02301063          	bne	x0,x3,654 <pass>

00000638 <fail>:
 638:	0ff0000f          	fence	iorw,iorw
 63c:	00018063          	beq	x3,x0,63c <fail+0x4>
 640:	00119193          	slli	x3,x3,0x1
 644:	0011e193          	ori	x3,x3,1
 648:	05d00893          	addi	x17,x0,93
 64c:	00018513          	addi	x10,x3,0
 650:	00000073          	ecall

00000654 <pass>:
 654:	0ff0000f          	fence	iorw,iorw
 658:	00100193          	addi	x3,x0,1
 65c:	05d00893          	addi	x17,x0,93
 660:	00000513          	addi	x10,x0,0
 664:	00000073          	ecall
 668:	c0001073          	unimp
 66c:	0000                	.2byte	0x0
 66e:	0000                	.2byte	0x0
 670:	0000                	.2byte	0x0
 672:	0000                	.2byte	0x0
 674:	0000                	.2byte	0x0
 676:	0000                	.2byte	0x0
 678:	0000                	.2byte	0x0
 67a:	0000                	.2byte	0x0
