
rv32ui-p-jalr:     file format elf32-littleriscv


Disassembly of section .text.init:

00000200 <_start>:
 200:	0480006f          	jal	x0,248 <reset_vector>

00000204 <trap_vector>:
 204:	34202f73          	csrrs	x30,mcause,x0
 208:	00800f93          	addi	x31,x0,8
 20c:	03ff0863          	beq	x30,x31,23c <write_tohost>
 210:	00900f93          	addi	x31,x0,9
 214:	03ff0463          	beq	x30,x31,23c <write_tohost>
 218:	00b00f93          	addi	x31,x0,11
 21c:	03ff0063          	beq	x30,x31,23c <write_tohost>
 220:	00000f13          	addi	x30,x0,0
 224:	000f0463          	beq	x30,x0,22c <trap_vector+0x28>
 228:	000f0067          	jalr	x0,0(x30)
 22c:	34202f73          	csrrs	x30,mcause,x0
 230:	000f5463          	bge	x30,x0,238 <handle_exception>
 234:	0040006f          	jal	x0,238 <handle_exception>

00000238 <handle_exception>:
 238:	5391e193          	ori	x3,x3,1337

0000023c <write_tohost>:
 23c:	00001f17          	auipc	x30,0x1
 240:	dc3f2223          	sw	x3,-572(x30) # 1000 <tohost>
 244:	ff9ff06f          	jal	x0,23c <write_tohost>

00000248 <reset_vector>:
 248:	00000093          	addi	x1,x0,0
 24c:	00000113          	addi	x2,x0,0
 250:	00000193          	addi	x3,x0,0
 254:	00000213          	addi	x4,x0,0
 258:	00000293          	addi	x5,x0,0
 25c:	00000313          	addi	x6,x0,0
 260:	00000393          	addi	x7,x0,0
 264:	00000413          	addi	x8,x0,0
 268:	00000493          	addi	x9,x0,0
 26c:	00000513          	addi	x10,x0,0
 270:	00000593          	addi	x11,x0,0
 274:	00000613          	addi	x12,x0,0
 278:	00000693          	addi	x13,x0,0
 27c:	00000713          	addi	x14,x0,0
 280:	00000793          	addi	x15,x0,0
 284:	00000813          	addi	x16,x0,0
 288:	00000893          	addi	x17,x0,0
 28c:	00000913          	addi	x18,x0,0
 290:	00000993          	addi	x19,x0,0
 294:	00000a13          	addi	x20,x0,0
 298:	00000a93          	addi	x21,x0,0
 29c:	00000b13          	addi	x22,x0,0
 2a0:	00000b93          	addi	x23,x0,0
 2a4:	00000c13          	addi	x24,x0,0
 2a8:	00000c93          	addi	x25,x0,0
 2ac:	00000d13          	addi	x26,x0,0
 2b0:	00000d93          	addi	x27,x0,0
 2b4:	00000e13          	addi	x28,x0,0
 2b8:	00000e93          	addi	x29,x0,0
 2bc:	00000f13          	addi	x30,x0,0
 2c0:	00000f93          	addi	x31,x0,0
 2c4:	f1402573          	csrrs	x10,mhartid,x0
 2c8:	00051063          	bne	x10,x0,2c8 <reset_vector+0x80>
 2cc:	00000297          	auipc	x5,0x0
 2d0:	01028293          	addi	x5,x5,16 # 2dc <reset_vector+0x94>
 2d4:	30529073          	csrrw	x0,mtvec,x5
 2d8:	18005073          	csrrwi	x0,satp,0
 2dc:	00000297          	auipc	x5,0x0
 2e0:	02028293          	addi	x5,x5,32 # 2fc <reset_vector+0xb4>
 2e4:	30529073          	csrrw	x0,mtvec,x5
 2e8:	800002b7          	lui	x5,0x80000
 2ec:	fff28293          	addi	x5,x5,-1 # 7fffffff <_end+0x7fffdfff>
 2f0:	3b029073          	csrrw	x0,pmpaddr0,x5
 2f4:	01f00293          	addi	x5,x0,31
 2f8:	3a029073          	csrrw	x0,pmpcfg0,x5
 2fc:	30405073          	csrrwi	x0,mie,0
 300:	00000297          	auipc	x5,0x0
 304:	01428293          	addi	x5,x5,20 # 314 <reset_vector+0xcc>
 308:	30529073          	csrrw	x0,mtvec,x5
 30c:	30205073          	csrrwi	x0,medeleg,0
 310:	30305073          	csrrwi	x0,mideleg,0
 314:	00000193          	addi	x3,x0,0
 318:	00000297          	auipc	x5,0x0
 31c:	eec28293          	addi	x5,x5,-276 # 204 <trap_vector>
 320:	30529073          	csrrw	x0,mtvec,x5
 324:	00100513          	addi	x10,x0,1
 328:	01f51513          	slli	x10,x10,0x1f
 32c:	00054c63          	blt	x10,x0,344 <reset_vector+0xfc>
 330:	0ff0000f          	fence	iorw,iorw
 334:	00100193          	addi	x3,x0,1
 338:	05d00893          	addi	x17,x0,93
 33c:	00000513          	addi	x10,x0,0
 340:	00000073          	ecall
 344:	00000293          	addi	x5,x0,0
 348:	00028a63          	beq	x5,x0,35c <reset_vector+0x114>
 34c:	10529073          	csrrw	x0,stvec,x5
 350:	0000b2b7          	lui	x5,0xb
 354:	10928293          	addi	x5,x5,265 # b109 <_end+0x9109>
 358:	30229073          	csrrw	x0,medeleg,x5
 35c:	30005073          	csrrwi	x0,mstatus,0
 360:	00000297          	auipc	x5,0x0
 364:	01428293          	addi	x5,x5,20 # 374 <test_2>
 368:	34129073          	csrrw	x0,mepc,x5
 36c:	f1402573          	csrrs	x10,mhartid,x0
 370:	30200073          	mret

00000374 <test_2>:
 374:	00200193          	addi	x3,x0,2
 378:	00000293          	addi	x5,x0,0
 37c:	00000317          	auipc	x6,0x0
 380:	01030313          	addi	x6,x6,16 # 38c <target_2>
 384:	000302e7          	jalr	x5,0(x6)

00000388 <linkaddr_2>:
 388:	0e00006f          	jal	x0,468 <fail>

0000038c <target_2>:
 38c:	00000317          	auipc	x6,0x0
 390:	ffc30313          	addi	x6,x6,-4 # 388 <linkaddr_2>
 394:	0c629a63          	bne	x5,x6,468 <fail>

00000398 <test_3>:
 398:	00300193          	addi	x3,x0,3
 39c:	00000297          	auipc	x5,0x0
 3a0:	01028293          	addi	x5,x5,16 # 3ac <target_3>
 3a4:	000282e7          	jalr	x5,0(x5)

000003a8 <linkaddr_3>:
 3a8:	0c00006f          	jal	x0,468 <fail>

000003ac <target_3>:
 3ac:	00000317          	auipc	x6,0x0
 3b0:	ffc30313          	addi	x6,x6,-4 # 3a8 <linkaddr_3>
 3b4:	0a629a63          	bne	x5,x6,468 <fail>

000003b8 <test_4>:
 3b8:	00400193          	addi	x3,x0,4
 3bc:	00000213          	addi	x4,x0,0
 3c0:	00000317          	auipc	x6,0x0
 3c4:	01030313          	addi	x6,x6,16 # 3d0 <test_4+0x18>
 3c8:	000306e7          	jalr	x13,0(x6)
 3cc:	08301e63          	bne	x0,x3,468 <fail>
 3d0:	00120213          	addi	x4,x4,1 # 1 <_start-0x1ff>
 3d4:	00200293          	addi	x5,x0,2
 3d8:	fe5214e3          	bne	x4,x5,3c0 <test_4+0x8>

000003dc <test_5>:
 3dc:	00500193          	addi	x3,x0,5
 3e0:	00000213          	addi	x4,x0,0
 3e4:	00000317          	auipc	x6,0x0
 3e8:	01430313          	addi	x6,x6,20 # 3f8 <test_5+0x1c>
 3ec:	00000013          	addi	x0,x0,0
 3f0:	000306e7          	jalr	x13,0(x6)
 3f4:	06301a63          	bne	x0,x3,468 <fail>
 3f8:	00120213          	addi	x4,x4,1 # 1 <_start-0x1ff>
 3fc:	00200293          	addi	x5,x0,2
 400:	fe5212e3          	bne	x4,x5,3e4 <test_5+0x8>

00000404 <test_6>:
 404:	00600193          	addi	x3,x0,6
 408:	00000213          	addi	x4,x0,0
 40c:	00000317          	auipc	x6,0x0
 410:	01830313          	addi	x6,x6,24 # 424 <test_6+0x20>
 414:	00000013          	addi	x0,x0,0
 418:	00000013          	addi	x0,x0,0
 41c:	000306e7          	jalr	x13,0(x6)
 420:	04301463          	bne	x0,x3,468 <fail>
 424:	00120213          	addi	x4,x4,1 # 1 <_start-0x1ff>
 428:	00200293          	addi	x5,x0,2
 42c:	fe5210e3          	bne	x4,x5,40c <test_6+0x8>

00000430 <test_7>:
 430:	00700193          	addi	x3,x0,7
 434:	00100293          	addi	x5,x0,1
 438:	00000317          	auipc	x6,0x0
 43c:	01c30313          	addi	x6,x6,28 # 454 <test_7+0x24>
 440:	ffc30067          	jalr	x0,-4(x6)
 444:	00128293          	addi	x5,x5,1
 448:	00128293          	addi	x5,x5,1
 44c:	00128293          	addi	x5,x5,1
 450:	00128293          	addi	x5,x5,1
 454:	00128293          	addi	x5,x5,1
 458:	00128293          	addi	x5,x5,1
 45c:	00400393          	addi	x7,x0,4
 460:	00729463          	bne	x5,x7,468 <fail>
 464:	02301063          	bne	x0,x3,484 <pass>

00000468 <fail>:
 468:	0ff0000f          	fence	iorw,iorw
 46c:	00018063          	beq	x3,x0,46c <fail+0x4>
 470:	00119193          	slli	x3,x3,0x1
 474:	0011e193          	ori	x3,x3,1
 478:	05d00893          	addi	x17,x0,93
 47c:	00018513          	addi	x10,x3,0
 480:	00000073          	ecall

00000484 <pass>:
 484:	0ff0000f          	fence	iorw,iorw
 488:	00100193          	addi	x3,x0,1
 48c:	05d00893          	addi	x17,x0,93
 490:	00000513          	addi	x10,x0,0
 494:	00000073          	ecall
 498:	c0001073          	unimp
 49c:	0000                	.2byte	0x0
 49e:	0000                	.2byte	0x0
 4a0:	0000                	.2byte	0x0
 4a2:	0000                	.2byte	0x0
 4a4:	0000                	.2byte	0x0
 4a6:	0000                	.2byte	0x0
 4a8:	0000                	.2byte	0x0
 4aa:	0000                	.2byte	0x0
 4ac:	0000                	.2byte	0x0
 4ae:	0000                	.2byte	0x0
 4b0:	0000                	.2byte	0x0
 4b2:	0000                	.2byte	0x0
 4b4:	0000                	.2byte	0x0
 4b6:	0000                	.2byte	0x0
 4b8:	0000                	.2byte	0x0
 4ba:	0000                	.2byte	0x0
