
rv32ui-p-bgeu:     file format elf32-littleriscv


Disassembly of section .text.init:

00000200 <_start>:
 200:	0480006f          	jal	x0,248 <reset_vector>

00000204 <trap_vector>:
 204:	34202f73          	csrrs	x30,mcause,x0
 208:	00800f93          	addi	x31,x0,8
 20c:	03ff0863          	beq	x30,x31,23c <write_tohost>
 210:	00900f93          	addi	x31,x0,9
 214:	03ff0463          	beq	x30,x31,23c <write_tohost>
 218:	00b00f93          	addi	x31,x0,11
 21c:	03ff0063          	beq	x30,x31,23c <write_tohost>
 220:	00000f13          	addi	x30,x0,0
 224:	000f0463          	beq	x30,x0,22c <trap_vector+0x28>
 228:	000f0067          	jalr	x0,0(x30)
 22c:	34202f73          	csrrs	x30,mcause,x0
 230:	000f5463          	bge	x30,x0,238 <handle_exception>
 234:	0040006f          	jal	x0,238 <handle_exception>

00000238 <handle_exception>:
 238:	5391e193          	ori	x3,x3,1337

0000023c <write_tohost>:
 23c:	00001f17          	auipc	x30,0x1
 240:	dc3f2223          	sw	x3,-572(x30) # 1000 <tohost>
 244:	ff9ff06f          	jal	x0,23c <write_tohost>

00000248 <reset_vector>:
 248:	00000093          	addi	x1,x0,0
 24c:	00000113          	addi	x2,x0,0
 250:	00000193          	addi	x3,x0,0
 254:	00000213          	addi	x4,x0,0
 258:	00000293          	addi	x5,x0,0
 25c:	00000313          	addi	x6,x0,0
 260:	00000393          	addi	x7,x0,0
 264:	00000413          	addi	x8,x0,0
 268:	00000493          	addi	x9,x0,0
 26c:	00000513          	addi	x10,x0,0
 270:	00000593          	addi	x11,x0,0
 274:	00000613          	addi	x12,x0,0
 278:	00000693          	addi	x13,x0,0
 27c:	00000713          	addi	x14,x0,0
 280:	00000793          	addi	x15,x0,0
 284:	00000813          	addi	x16,x0,0
 288:	00000893          	addi	x17,x0,0
 28c:	00000913          	addi	x18,x0,0
 290:	00000993          	addi	x19,x0,0
 294:	00000a13          	addi	x20,x0,0
 298:	00000a93          	addi	x21,x0,0
 29c:	00000b13          	addi	x22,x0,0
 2a0:	00000b93          	addi	x23,x0,0
 2a4:	00000c13          	addi	x24,x0,0
 2a8:	00000c93          	addi	x25,x0,0
 2ac:	00000d13          	addi	x26,x0,0
 2b0:	00000d93          	addi	x27,x0,0
 2b4:	00000e13          	addi	x28,x0,0
 2b8:	00000e93          	addi	x29,x0,0
 2bc:	00000f13          	addi	x30,x0,0
 2c0:	00000f93          	addi	x31,x0,0
 2c4:	f1402573          	csrrs	x10,mhartid,x0
 2c8:	00051063          	bne	x10,x0,2c8 <reset_vector+0x80>
 2cc:	00000297          	auipc	x5,0x0
 2d0:	01028293          	addi	x5,x5,16 # 2dc <reset_vector+0x94>
 2d4:	30529073          	csrrw	x0,mtvec,x5
 2d8:	18005073          	csrrwi	x0,satp,0
 2dc:	00000297          	auipc	x5,0x0
 2e0:	02028293          	addi	x5,x5,32 # 2fc <reset_vector+0xb4>
 2e4:	30529073          	csrrw	x0,mtvec,x5
 2e8:	800002b7          	lui	x5,0x80000
 2ec:	fff28293          	addi	x5,x5,-1 # 7fffffff <_end+0x7fffdfff>
 2f0:	3b029073          	csrrw	x0,pmpaddr0,x5
 2f4:	01f00293          	addi	x5,x0,31
 2f8:	3a029073          	csrrw	x0,pmpcfg0,x5
 2fc:	30405073          	csrrwi	x0,mie,0
 300:	00000297          	auipc	x5,0x0
 304:	01428293          	addi	x5,x5,20 # 314 <reset_vector+0xcc>
 308:	30529073          	csrrw	x0,mtvec,x5
 30c:	30205073          	csrrwi	x0,medeleg,0
 310:	30305073          	csrrwi	x0,mideleg,0
 314:	00000193          	addi	x3,x0,0
 318:	00000297          	auipc	x5,0x0
 31c:	eec28293          	addi	x5,x5,-276 # 204 <trap_vector>
 320:	30529073          	csrrw	x0,mtvec,x5
 324:	00100513          	addi	x10,x0,1
 328:	01f51513          	slli	x10,x10,0x1f
 32c:	00054c63          	blt	x10,x0,344 <reset_vector+0xfc>
 330:	0ff0000f          	fence	iorw,iorw
 334:	00100193          	addi	x3,x0,1
 338:	05d00893          	addi	x17,x0,93
 33c:	00000513          	addi	x10,x0,0
 340:	00000073          	ecall
 344:	00000293          	addi	x5,x0,0
 348:	00028a63          	beq	x5,x0,35c <reset_vector+0x114>
 34c:	10529073          	csrrw	x0,stvec,x5
 350:	0000b2b7          	lui	x5,0xb
 354:	10928293          	addi	x5,x5,265 # b109 <_end+0x9109>
 358:	30229073          	csrrw	x0,medeleg,x5
 35c:	30005073          	csrrwi	x0,mstatus,0
 360:	00000297          	auipc	x5,0x0
 364:	01428293          	addi	x5,x5,20 # 374 <test_2>
 368:	34129073          	csrrw	x0,mepc,x5
 36c:	f1402573          	csrrs	x10,mhartid,x0
 370:	30200073          	mret

00000374 <test_2>:
 374:	00200193          	addi	x3,x0,2
 378:	00000093          	addi	x1,x0,0
 37c:	00000113          	addi	x2,x0,0
 380:	0020f663          	bgeu	x1,x2,38c <test_2+0x18>
 384:	34301263          	bne	x0,x3,6c8 <fail>
 388:	00301663          	bne	x0,x3,394 <test_3>
 38c:	fe20fee3          	bgeu	x1,x2,388 <test_2+0x14>
 390:	32301c63          	bne	x0,x3,6c8 <fail>

00000394 <test_3>:
 394:	00300193          	addi	x3,x0,3
 398:	00100093          	addi	x1,x0,1
 39c:	00100113          	addi	x2,x0,1
 3a0:	0020f663          	bgeu	x1,x2,3ac <test_3+0x18>
 3a4:	32301263          	bne	x0,x3,6c8 <fail>
 3a8:	00301663          	bne	x0,x3,3b4 <test_4>
 3ac:	fe20fee3          	bgeu	x1,x2,3a8 <test_3+0x14>
 3b0:	30301c63          	bne	x0,x3,6c8 <fail>

000003b4 <test_4>:
 3b4:	00400193          	addi	x3,x0,4
 3b8:	fff00093          	addi	x1,x0,-1
 3bc:	fff00113          	addi	x2,x0,-1
 3c0:	0020f663          	bgeu	x1,x2,3cc <test_4+0x18>
 3c4:	30301263          	bne	x0,x3,6c8 <fail>
 3c8:	00301663          	bne	x0,x3,3d4 <test_5>
 3cc:	fe20fee3          	bgeu	x1,x2,3c8 <test_4+0x14>
 3d0:	2e301c63          	bne	x0,x3,6c8 <fail>

000003d4 <test_5>:
 3d4:	00500193          	addi	x3,x0,5
 3d8:	00100093          	addi	x1,x0,1
 3dc:	00000113          	addi	x2,x0,0
 3e0:	0020f663          	bgeu	x1,x2,3ec <test_5+0x18>
 3e4:	2e301263          	bne	x0,x3,6c8 <fail>
 3e8:	00301663          	bne	x0,x3,3f4 <test_6>
 3ec:	fe20fee3          	bgeu	x1,x2,3e8 <test_5+0x14>
 3f0:	2c301c63          	bne	x0,x3,6c8 <fail>

000003f4 <test_6>:
 3f4:	00600193          	addi	x3,x0,6
 3f8:	fff00093          	addi	x1,x0,-1
 3fc:	ffe00113          	addi	x2,x0,-2
 400:	0020f663          	bgeu	x1,x2,40c <test_6+0x18>
 404:	2c301263          	bne	x0,x3,6c8 <fail>
 408:	00301663          	bne	x0,x3,414 <test_7>
 40c:	fe20fee3          	bgeu	x1,x2,408 <test_6+0x14>
 410:	2a301c63          	bne	x0,x3,6c8 <fail>

00000414 <test_7>:
 414:	00700193          	addi	x3,x0,7
 418:	fff00093          	addi	x1,x0,-1
 41c:	00000113          	addi	x2,x0,0
 420:	0020f663          	bgeu	x1,x2,42c <test_7+0x18>
 424:	2a301263          	bne	x0,x3,6c8 <fail>
 428:	00301663          	bne	x0,x3,434 <test_8>
 42c:	fe20fee3          	bgeu	x1,x2,428 <test_7+0x14>
 430:	28301c63          	bne	x0,x3,6c8 <fail>

00000434 <test_8>:
 434:	00800193          	addi	x3,x0,8
 438:	00000093          	addi	x1,x0,0
 43c:	00100113          	addi	x2,x0,1
 440:	0020f463          	bgeu	x1,x2,448 <test_8+0x14>
 444:	00301463          	bne	x0,x3,44c <test_8+0x18>
 448:	28301063          	bne	x0,x3,6c8 <fail>
 44c:	fe20fee3          	bgeu	x1,x2,448 <test_8+0x14>

00000450 <test_9>:
 450:	00900193          	addi	x3,x0,9
 454:	ffe00093          	addi	x1,x0,-2
 458:	fff00113          	addi	x2,x0,-1
 45c:	0020f463          	bgeu	x1,x2,464 <test_9+0x14>
 460:	00301463          	bne	x0,x3,468 <test_9+0x18>
 464:	26301263          	bne	x0,x3,6c8 <fail>
 468:	fe20fee3          	bgeu	x1,x2,464 <test_9+0x14>

0000046c <test_10>:
 46c:	00a00193          	addi	x3,x0,10
 470:	00000093          	addi	x1,x0,0
 474:	fff00113          	addi	x2,x0,-1
 478:	0020f463          	bgeu	x1,x2,480 <test_10+0x14>
 47c:	00301463          	bne	x0,x3,484 <test_10+0x18>
 480:	24301463          	bne	x0,x3,6c8 <fail>
 484:	fe20fee3          	bgeu	x1,x2,480 <test_10+0x14>

00000488 <test_11>:
 488:	00b00193          	addi	x3,x0,11
 48c:	800000b7          	lui	x1,0x80000
 490:	fff08093          	addi	x1,x1,-1 # 7fffffff <_end+0x7fffdfff>
 494:	80000137          	lui	x2,0x80000
 498:	0020f463          	bgeu	x1,x2,4a0 <test_11+0x18>
 49c:	00301463          	bne	x0,x3,4a4 <test_11+0x1c>
 4a0:	22301463          	bne	x0,x3,6c8 <fail>
 4a4:	fe20fee3          	bgeu	x1,x2,4a0 <test_11+0x18>

000004a8 <test_12>:
 4a8:	00c00193          	addi	x3,x0,12
 4ac:	00000213          	addi	x4,x0,0
 4b0:	f00000b7          	lui	x1,0xf0000
 4b4:	fff08093          	addi	x1,x1,-1 # efffffff <_end+0xefffdfff>
 4b8:	f0000137          	lui	x2,0xf0000
 4bc:	2020f663          	bgeu	x1,x2,6c8 <fail>
 4c0:	00120213          	addi	x4,x4,1 # 1 <_start-0x1ff>
 4c4:	00200293          	addi	x5,x0,2
 4c8:	fe5214e3          	bne	x4,x5,4b0 <test_12+0x8>

000004cc <test_13>:
 4cc:	00d00193          	addi	x3,x0,13
 4d0:	00000213          	addi	x4,x0,0
 4d4:	f00000b7          	lui	x1,0xf0000
 4d8:	fff08093          	addi	x1,x1,-1 # efffffff <_end+0xefffdfff>
 4dc:	f0000137          	lui	x2,0xf0000
 4e0:	00000013          	addi	x0,x0,0
 4e4:	1e20f263          	bgeu	x1,x2,6c8 <fail>
 4e8:	00120213          	addi	x4,x4,1 # 1 <_start-0x1ff>
 4ec:	00200293          	addi	x5,x0,2
 4f0:	fe5212e3          	bne	x4,x5,4d4 <test_13+0x8>

000004f4 <test_14>:
 4f4:	00e00193          	addi	x3,x0,14
 4f8:	00000213          	addi	x4,x0,0
 4fc:	f00000b7          	lui	x1,0xf0000
 500:	fff08093          	addi	x1,x1,-1 # efffffff <_end+0xefffdfff>
 504:	f0000137          	lui	x2,0xf0000
 508:	00000013          	addi	x0,x0,0
 50c:	00000013          	addi	x0,x0,0
 510:	1a20fc63          	bgeu	x1,x2,6c8 <fail>
 514:	00120213          	addi	x4,x4,1 # 1 <_start-0x1ff>
 518:	00200293          	addi	x5,x0,2
 51c:	fe5210e3          	bne	x4,x5,4fc <test_14+0x8>

00000520 <test_15>:
 520:	00f00193          	addi	x3,x0,15
 524:	00000213          	addi	x4,x0,0
 528:	f00000b7          	lui	x1,0xf0000
 52c:	fff08093          	addi	x1,x1,-1 # efffffff <_end+0xefffdfff>
 530:	00000013          	addi	x0,x0,0
 534:	f0000137          	lui	x2,0xf0000
 538:	1820f863          	bgeu	x1,x2,6c8 <fail>
 53c:	00120213          	addi	x4,x4,1 # 1 <_start-0x1ff>
 540:	00200293          	addi	x5,x0,2
 544:	fe5212e3          	bne	x4,x5,528 <test_15+0x8>

00000548 <test_16>:
 548:	01000193          	addi	x3,x0,16
 54c:	00000213          	addi	x4,x0,0
 550:	f00000b7          	lui	x1,0xf0000
 554:	fff08093          	addi	x1,x1,-1 # efffffff <_end+0xefffdfff>
 558:	00000013          	addi	x0,x0,0
 55c:	f0000137          	lui	x2,0xf0000
 560:	00000013          	addi	x0,x0,0
 564:	1620f263          	bgeu	x1,x2,6c8 <fail>
 568:	00120213          	addi	x4,x4,1 # 1 <_start-0x1ff>
 56c:	00200293          	addi	x5,x0,2
 570:	fe5210e3          	bne	x4,x5,550 <test_16+0x8>

00000574 <test_17>:
 574:	01100193          	addi	x3,x0,17
 578:	00000213          	addi	x4,x0,0
 57c:	f00000b7          	lui	x1,0xf0000
 580:	fff08093          	addi	x1,x1,-1 # efffffff <_end+0xefffdfff>
 584:	00000013          	addi	x0,x0,0
 588:	00000013          	addi	x0,x0,0
 58c:	f0000137          	lui	x2,0xf0000
 590:	1220fc63          	bgeu	x1,x2,6c8 <fail>
 594:	00120213          	addi	x4,x4,1 # 1 <_start-0x1ff>
 598:	00200293          	addi	x5,x0,2
 59c:	fe5210e3          	bne	x4,x5,57c <test_17+0x8>

000005a0 <test_18>:
 5a0:	01200193          	addi	x3,x0,18
 5a4:	00000213          	addi	x4,x0,0
 5a8:	f00000b7          	lui	x1,0xf0000
 5ac:	fff08093          	addi	x1,x1,-1 # efffffff <_end+0xefffdfff>
 5b0:	f0000137          	lui	x2,0xf0000
 5b4:	1020fa63          	bgeu	x1,x2,6c8 <fail>
 5b8:	00120213          	addi	x4,x4,1 # 1 <_start-0x1ff>
 5bc:	00200293          	addi	x5,x0,2
 5c0:	fe5214e3          	bne	x4,x5,5a8 <test_18+0x8>

000005c4 <test_19>:
 5c4:	01300193          	addi	x3,x0,19
 5c8:	00000213          	addi	x4,x0,0
 5cc:	f00000b7          	lui	x1,0xf0000
 5d0:	fff08093          	addi	x1,x1,-1 # efffffff <_end+0xefffdfff>
 5d4:	f0000137          	lui	x2,0xf0000
 5d8:	00000013          	addi	x0,x0,0
 5dc:	0e20f663          	bgeu	x1,x2,6c8 <fail>
 5e0:	00120213          	addi	x4,x4,1 # 1 <_start-0x1ff>
 5e4:	00200293          	addi	x5,x0,2
 5e8:	fe5212e3          	bne	x4,x5,5cc <test_19+0x8>

000005ec <test_20>:
 5ec:	01400193          	addi	x3,x0,20
 5f0:	00000213          	addi	x4,x0,0
 5f4:	f00000b7          	lui	x1,0xf0000
 5f8:	fff08093          	addi	x1,x1,-1 # efffffff <_end+0xefffdfff>
 5fc:	f0000137          	lui	x2,0xf0000
 600:	00000013          	addi	x0,x0,0
 604:	00000013          	addi	x0,x0,0
 608:	0c20f063          	bgeu	x1,x2,6c8 <fail>
 60c:	00120213          	addi	x4,x4,1 # 1 <_start-0x1ff>
 610:	00200293          	addi	x5,x0,2
 614:	fe5210e3          	bne	x4,x5,5f4 <test_20+0x8>

00000618 <test_21>:
 618:	01500193          	addi	x3,x0,21
 61c:	00000213          	addi	x4,x0,0
 620:	f00000b7          	lui	x1,0xf0000
 624:	fff08093          	addi	x1,x1,-1 # efffffff <_end+0xefffdfff>
 628:	00000013          	addi	x0,x0,0
 62c:	f0000137          	lui	x2,0xf0000
 630:	0820fc63          	bgeu	x1,x2,6c8 <fail>
 634:	00120213          	addi	x4,x4,1 # 1 <_start-0x1ff>
 638:	00200293          	addi	x5,x0,2
 63c:	fe5212e3          	bne	x4,x5,620 <test_21+0x8>

00000640 <test_22>:
 640:	01600193          	addi	x3,x0,22
 644:	00000213          	addi	x4,x0,0
 648:	f00000b7          	lui	x1,0xf0000
 64c:	fff08093          	addi	x1,x1,-1 # efffffff <_end+0xefffdfff>
 650:	00000013          	addi	x0,x0,0
 654:	f0000137          	lui	x2,0xf0000
 658:	00000013          	addi	x0,x0,0
 65c:	0620f663          	bgeu	x1,x2,6c8 <fail>
 660:	00120213          	addi	x4,x4,1 # 1 <_start-0x1ff>
 664:	00200293          	addi	x5,x0,2
 668:	fe5210e3          	bne	x4,x5,648 <test_22+0x8>

0000066c <test_23>:
 66c:	01700193          	addi	x3,x0,23
 670:	00000213          	addi	x4,x0,0
 674:	f00000b7          	lui	x1,0xf0000
 678:	fff08093          	addi	x1,x1,-1 # efffffff <_end+0xefffdfff>
 67c:	00000013          	addi	x0,x0,0
 680:	00000013          	addi	x0,x0,0
 684:	f0000137          	lui	x2,0xf0000
 688:	0420f063          	bgeu	x1,x2,6c8 <fail>
 68c:	00120213          	addi	x4,x4,1 # 1 <_start-0x1ff>
 690:	00200293          	addi	x5,x0,2
 694:	fe5210e3          	bne	x4,x5,674 <test_23+0x8>

00000698 <test_24>:
 698:	01800193          	addi	x3,x0,24
 69c:	00100093          	addi	x1,x0,1
 6a0:	0000fa63          	bgeu	x1,x0,6b4 <test_24+0x1c>
 6a4:	00108093          	addi	x1,x1,1
 6a8:	00108093          	addi	x1,x1,1
 6ac:	00108093          	addi	x1,x1,1
 6b0:	00108093          	addi	x1,x1,1
 6b4:	00108093          	addi	x1,x1,1
 6b8:	00108093          	addi	x1,x1,1
 6bc:	00300393          	addi	x7,x0,3
 6c0:	00709463          	bne	x1,x7,6c8 <fail>
 6c4:	02301063          	bne	x0,x3,6e4 <pass>

000006c8 <fail>:
 6c8:	0ff0000f          	fence	iorw,iorw
 6cc:	00018063          	beq	x3,x0,6cc <fail+0x4>
 6d0:	00119193          	slli	x3,x3,0x1
 6d4:	0011e193          	ori	x3,x3,1
 6d8:	05d00893          	addi	x17,x0,93
 6dc:	00018513          	addi	x10,x3,0
 6e0:	00000073          	ecall

000006e4 <pass>:
 6e4:	0ff0000f          	fence	iorw,iorw
 6e8:	00100193          	addi	x3,x0,1
 6ec:	05d00893          	addi	x17,x0,93
 6f0:	00000513          	addi	x10,x0,0
 6f4:	00000073          	ecall
 6f8:	c0001073          	unimp
