
rv32ui-p-addi:     file format elf32-littleriscv


Disassembly of section .text.init:

00000200 <_start>:
 200:	0480006f          	jal	x0,248 <reset_vector>

00000204 <trap_vector>:
 204:	34202f73          	csrrs	x30,mcause,x0
 208:	00800f93          	addi	x31,x0,8
 20c:	03ff0863          	beq	x30,x31,23c <write_tohost>
 210:	00900f93          	addi	x31,x0,9
 214:	03ff0463          	beq	x30,x31,23c <write_tohost>
 218:	00b00f93          	addi	x31,x0,11
 21c:	03ff0063          	beq	x30,x31,23c <write_tohost>
 220:	00000f13          	addi	x30,x0,0
 224:	000f0463          	beq	x30,x0,22c <trap_vector+0x28>
 228:	000f0067          	jalr	x0,0(x30)
 22c:	34202f73          	csrrs	x30,mcause,x0
 230:	000f5463          	bge	x30,x0,238 <handle_exception>
 234:	0040006f          	jal	x0,238 <handle_exception>

00000238 <handle_exception>:
 238:	5391e193          	ori	x3,x3,1337

0000023c <write_tohost>:
 23c:	00001f17          	auipc	x30,0x1
 240:	dc3f2223          	sw	x3,-572(x30) # 1000 <tohost>
 244:	ff9ff06f          	jal	x0,23c <write_tohost>

00000248 <reset_vector>:
 248:	00000093          	addi	x1,x0,0
 24c:	00000113          	addi	x2,x0,0
 250:	00000193          	addi	x3,x0,0
 254:	00000213          	addi	x4,x0,0
 258:	00000293          	addi	x5,x0,0
 25c:	00000313          	addi	x6,x0,0
 260:	00000393          	addi	x7,x0,0
 264:	00000413          	addi	x8,x0,0
 268:	00000493          	addi	x9,x0,0
 26c:	00000513          	addi	x10,x0,0
 270:	00000593          	addi	x11,x0,0
 274:	00000613          	addi	x12,x0,0
 278:	00000693          	addi	x13,x0,0
 27c:	00000713          	addi	x14,x0,0
 280:	00000793          	addi	x15,x0,0
 284:	00000813          	addi	x16,x0,0
 288:	00000893          	addi	x17,x0,0
 28c:	00000913          	addi	x18,x0,0
 290:	00000993          	addi	x19,x0,0
 294:	00000a13          	addi	x20,x0,0
 298:	00000a93          	addi	x21,x0,0
 29c:	00000b13          	addi	x22,x0,0
 2a0:	00000b93          	addi	x23,x0,0
 2a4:	00000c13          	addi	x24,x0,0
 2a8:	00000c93          	addi	x25,x0,0
 2ac:	00000d13          	addi	x26,x0,0
 2b0:	00000d93          	addi	x27,x0,0
 2b4:	00000e13          	addi	x28,x0,0
 2b8:	00000e93          	addi	x29,x0,0
 2bc:	00000f13          	addi	x30,x0,0
 2c0:	00000f93          	addi	x31,x0,0
 2c4:	f1402573          	csrrs	x10,mhartid,x0
 2c8:	00051063          	bne	x10,x0,2c8 <reset_vector+0x80>
 2cc:	00000297          	auipc	x5,0x0
 2d0:	01028293          	addi	x5,x5,16 # 2dc <reset_vector+0x94>
 2d4:	30529073          	csrrw	x0,mtvec,x5
 2d8:	18005073          	csrrwi	x0,satp,0
 2dc:	00000297          	auipc	x5,0x0
 2e0:	02028293          	addi	x5,x5,32 # 2fc <reset_vector+0xb4>
 2e4:	30529073          	csrrw	x0,mtvec,x5
 2e8:	800002b7          	lui	x5,0x80000
 2ec:	fff28293          	addi	x5,x5,-1 # 7fffffff <_end+0x7fffdfff>
 2f0:	3b029073          	csrrw	x0,pmpaddr0,x5
 2f4:	01f00293          	addi	x5,x0,31
 2f8:	3a029073          	csrrw	x0,pmpcfg0,x5
 2fc:	30405073          	csrrwi	x0,mie,0
 300:	00000297          	auipc	x5,0x0
 304:	01428293          	addi	x5,x5,20 # 314 <reset_vector+0xcc>
 308:	30529073          	csrrw	x0,mtvec,x5
 30c:	30205073          	csrrwi	x0,medeleg,0
 310:	30305073          	csrrwi	x0,mideleg,0
 314:	00000193          	addi	x3,x0,0
 318:	00000297          	auipc	x5,0x0
 31c:	eec28293          	addi	x5,x5,-276 # 204 <trap_vector>
 320:	30529073          	csrrw	x0,mtvec,x5
 324:	00100513          	addi	x10,x0,1
 328:	01f51513          	slli	x10,x10,0x1f
 32c:	00054c63          	blt	x10,x0,344 <reset_vector+0xfc>
 330:	0ff0000f          	fence	iorw,iorw
 334:	00100193          	addi	x3,x0,1
 338:	05d00893          	addi	x17,x0,93
 33c:	00000513          	addi	x10,x0,0
 340:	00000073          	ecall
 344:	00000293          	addi	x5,x0,0
 348:	00028a63          	beq	x5,x0,35c <reset_vector+0x114>
 34c:	10529073          	csrrw	x0,stvec,x5
 350:	0000b2b7          	lui	x5,0xb
 354:	10928293          	addi	x5,x5,265 # b109 <_end+0x9109>
 358:	30229073          	csrrw	x0,medeleg,x5
 35c:	30005073          	csrrwi	x0,mstatus,0
 360:	00000297          	auipc	x5,0x0
 364:	01428293          	addi	x5,x5,20 # 374 <test_2>
 368:	34129073          	csrrw	x0,mepc,x5
 36c:	f1402573          	csrrs	x10,mhartid,x0
 370:	30200073          	mret

00000374 <test_2>:
 374:	00200193          	addi	x3,x0,2
 378:	00000093          	addi	x1,x0,0
 37c:	00008713          	addi	x14,x1,0
 380:	00000393          	addi	x7,x0,0
 384:	26771c63          	bne	x14,x7,5fc <fail>

00000388 <test_3>:
 388:	00300193          	addi	x3,x0,3
 38c:	00100093          	addi	x1,x0,1
 390:	00108713          	addi	x14,x1,1
 394:	00200393          	addi	x7,x0,2
 398:	26771263          	bne	x14,x7,5fc <fail>

0000039c <test_4>:
 39c:	00400193          	addi	x3,x0,4
 3a0:	00300093          	addi	x1,x0,3
 3a4:	00708713          	addi	x14,x1,7
 3a8:	00a00393          	addi	x7,x0,10
 3ac:	24771863          	bne	x14,x7,5fc <fail>

000003b0 <test_5>:
 3b0:	00500193          	addi	x3,x0,5
 3b4:	00000093          	addi	x1,x0,0
 3b8:	80008713          	addi	x14,x1,-2048
 3bc:	80000393          	addi	x7,x0,-2048
 3c0:	22771e63          	bne	x14,x7,5fc <fail>

000003c4 <test_6>:
 3c4:	00600193          	addi	x3,x0,6
 3c8:	800000b7          	lui	x1,0x80000
 3cc:	00008713          	addi	x14,x1,0 # 80000000 <_end+0x7fffe000>
 3d0:	800003b7          	lui	x7,0x80000
 3d4:	22771463          	bne	x14,x7,5fc <fail>

000003d8 <test_7>:
 3d8:	00700193          	addi	x3,x0,7
 3dc:	800000b7          	lui	x1,0x80000
 3e0:	80008713          	addi	x14,x1,-2048 # 7ffff800 <_end+0x7fffd800>
 3e4:	800003b7          	lui	x7,0x80000
 3e8:	80038393          	addi	x7,x7,-2048 # 7ffff800 <_end+0x7fffd800>
 3ec:	20771863          	bne	x14,x7,5fc <fail>

000003f0 <test_8>:
 3f0:	00800193          	addi	x3,x0,8
 3f4:	00000093          	addi	x1,x0,0
 3f8:	7ff08713          	addi	x14,x1,2047
 3fc:	7ff00393          	addi	x7,x0,2047
 400:	1e771e63          	bne	x14,x7,5fc <fail>

00000404 <test_9>:
 404:	00900193          	addi	x3,x0,9
 408:	800000b7          	lui	x1,0x80000
 40c:	fff08093          	addi	x1,x1,-1 # 7fffffff <_end+0x7fffdfff>
 410:	00008713          	addi	x14,x1,0
 414:	800003b7          	lui	x7,0x80000
 418:	fff38393          	addi	x7,x7,-1 # 7fffffff <_end+0x7fffdfff>
 41c:	1e771063          	bne	x14,x7,5fc <fail>

00000420 <test_10>:
 420:	00a00193          	addi	x3,x0,10
 424:	800000b7          	lui	x1,0x80000
 428:	fff08093          	addi	x1,x1,-1 # 7fffffff <_end+0x7fffdfff>
 42c:	7ff08713          	addi	x14,x1,2047
 430:	800003b7          	lui	x7,0x80000
 434:	7fe38393          	addi	x7,x7,2046 # 800007fe <_end+0x7fffe7fe>
 438:	1c771263          	bne	x14,x7,5fc <fail>

0000043c <test_11>:
 43c:	00b00193          	addi	x3,x0,11
 440:	800000b7          	lui	x1,0x80000
 444:	7ff08713          	addi	x14,x1,2047 # 800007ff <_end+0x7fffe7ff>
 448:	800003b7          	lui	x7,0x80000
 44c:	7ff38393          	addi	x7,x7,2047 # 800007ff <_end+0x7fffe7ff>
 450:	1a771663          	bne	x14,x7,5fc <fail>

00000454 <test_12>:
 454:	00c00193          	addi	x3,x0,12
 458:	800000b7          	lui	x1,0x80000
 45c:	fff08093          	addi	x1,x1,-1 # 7fffffff <_end+0x7fffdfff>
 460:	80008713          	addi	x14,x1,-2048
 464:	7ffff3b7          	lui	x7,0x7ffff
 468:	7ff38393          	addi	x7,x7,2047 # 7ffff7ff <_end+0x7fffd7ff>
 46c:	18771863          	bne	x14,x7,5fc <fail>

00000470 <test_13>:
 470:	00d00193          	addi	x3,x0,13
 474:	00000093          	addi	x1,x0,0
 478:	fff08713          	addi	x14,x1,-1
 47c:	fff00393          	addi	x7,x0,-1
 480:	16771e63          	bne	x14,x7,5fc <fail>

00000484 <test_14>:
 484:	00e00193          	addi	x3,x0,14
 488:	fff00093          	addi	x1,x0,-1
 48c:	00108713          	addi	x14,x1,1
 490:	00000393          	addi	x7,x0,0
 494:	16771463          	bne	x14,x7,5fc <fail>

00000498 <test_15>:
 498:	00f00193          	addi	x3,x0,15
 49c:	fff00093          	addi	x1,x0,-1
 4a0:	fff08713          	addi	x14,x1,-1
 4a4:	ffe00393          	addi	x7,x0,-2
 4a8:	14771a63          	bne	x14,x7,5fc <fail>

000004ac <test_16>:
 4ac:	01000193          	addi	x3,x0,16
 4b0:	800000b7          	lui	x1,0x80000
 4b4:	fff08093          	addi	x1,x1,-1 # 7fffffff <_end+0x7fffdfff>
 4b8:	00108713          	addi	x14,x1,1
 4bc:	800003b7          	lui	x7,0x80000
 4c0:	12771e63          	bne	x14,x7,5fc <fail>

000004c4 <test_17>:
 4c4:	01100193          	addi	x3,x0,17
 4c8:	00d00093          	addi	x1,x0,13
 4cc:	00b08093          	addi	x1,x1,11
 4d0:	01800393          	addi	x7,x0,24
 4d4:	12709463          	bne	x1,x7,5fc <fail>

000004d8 <test_18>:
 4d8:	01200193          	addi	x3,x0,18
 4dc:	00000213          	addi	x4,x0,0
 4e0:	00d00093          	addi	x1,x0,13
 4e4:	00b08713          	addi	x14,x1,11
 4e8:	00070313          	addi	x6,x14,0
 4ec:	00120213          	addi	x4,x4,1 # 1 <_start-0x1ff>
 4f0:	00200293          	addi	x5,x0,2
 4f4:	fe5216e3          	bne	x4,x5,4e0 <test_18+0x8>
 4f8:	01800393          	addi	x7,x0,24
 4fc:	10731063          	bne	x6,x7,5fc <fail>

00000500 <test_19>:
 500:	01300193          	addi	x3,x0,19
 504:	00000213          	addi	x4,x0,0
 508:	00d00093          	addi	x1,x0,13
 50c:	00a08713          	addi	x14,x1,10
 510:	00000013          	addi	x0,x0,0
 514:	00070313          	addi	x6,x14,0
 518:	00120213          	addi	x4,x4,1 # 1 <_start-0x1ff>
 51c:	00200293          	addi	x5,x0,2
 520:	fe5214e3          	bne	x4,x5,508 <test_19+0x8>
 524:	01700393          	addi	x7,x0,23
 528:	0c731a63          	bne	x6,x7,5fc <fail>

0000052c <test_20>:
 52c:	01400193          	addi	x3,x0,20
 530:	00000213          	addi	x4,x0,0
 534:	00d00093          	addi	x1,x0,13
 538:	00908713          	addi	x14,x1,9
 53c:	00000013          	addi	x0,x0,0
 540:	00000013          	addi	x0,x0,0
 544:	00070313          	addi	x6,x14,0
 548:	00120213          	addi	x4,x4,1 # 1 <_start-0x1ff>
 54c:	00200293          	addi	x5,x0,2
 550:	fe5212e3          	bne	x4,x5,534 <test_20+0x8>
 554:	01600393          	addi	x7,x0,22
 558:	0a731263          	bne	x6,x7,5fc <fail>

0000055c <test_21>:
 55c:	01500193          	addi	x3,x0,21
 560:	00000213          	addi	x4,x0,0
 564:	00d00093          	addi	x1,x0,13
 568:	00b08713          	addi	x14,x1,11
 56c:	00120213          	addi	x4,x4,1 # 1 <_start-0x1ff>
 570:	00200293          	addi	x5,x0,2
 574:	fe5218e3          	bne	x4,x5,564 <test_21+0x8>
 578:	01800393          	addi	x7,x0,24
 57c:	08771063          	bne	x14,x7,5fc <fail>

00000580 <test_22>:
 580:	01600193          	addi	x3,x0,22
 584:	00000213          	addi	x4,x0,0
 588:	00d00093          	addi	x1,x0,13
 58c:	00000013          	addi	x0,x0,0
 590:	00a08713          	addi	x14,x1,10
 594:	00120213          	addi	x4,x4,1 # 1 <_start-0x1ff>
 598:	00200293          	addi	x5,x0,2
 59c:	fe5216e3          	bne	x4,x5,588 <test_22+0x8>
 5a0:	01700393          	addi	x7,x0,23
 5a4:	04771c63          	bne	x14,x7,5fc <fail>

000005a8 <test_23>:
 5a8:	01700193          	addi	x3,x0,23
 5ac:	00000213          	addi	x4,x0,0
 5b0:	00d00093          	addi	x1,x0,13
 5b4:	00000013          	addi	x0,x0,0
 5b8:	00000013          	addi	x0,x0,0
 5bc:	00908713          	addi	x14,x1,9
 5c0:	00120213          	addi	x4,x4,1 # 1 <_start-0x1ff>
 5c4:	00200293          	addi	x5,x0,2
 5c8:	fe5214e3          	bne	x4,x5,5b0 <test_23+0x8>
 5cc:	01600393          	addi	x7,x0,22
 5d0:	02771663          	bne	x14,x7,5fc <fail>

000005d4 <test_24>:
 5d4:	01800193          	addi	x3,x0,24
 5d8:	02000093          	addi	x1,x0,32
 5dc:	02000393          	addi	x7,x0,32
 5e0:	00709e63          	bne	x1,x7,5fc <fail>

000005e4 <test_25>:
 5e4:	01900193          	addi	x3,x0,25
 5e8:	02100093          	addi	x1,x0,33
 5ec:	03208013          	addi	x0,x1,50
 5f0:	00000393          	addi	x7,x0,0
 5f4:	00701463          	bne	x0,x7,5fc <fail>
 5f8:	02301063          	bne	x0,x3,618 <pass>

000005fc <fail>:
 5fc:	0ff0000f          	fence	iorw,iorw
 600:	00018063          	beq	x3,x0,600 <fail+0x4>
 604:	00119193          	slli	x3,x3,0x1
 608:	0011e193          	ori	x3,x3,1
 60c:	05d00893          	addi	x17,x0,93
 610:	00018513          	addi	x10,x3,0
 614:	00000073          	ecall

00000618 <pass>:
 618:	0ff0000f          	fence	iorw,iorw
 61c:	00100193          	addi	x3,x0,1
 620:	05d00893          	addi	x17,x0,93
 624:	00000513          	addi	x10,x0,0
 628:	00000073          	ecall
 62c:	c0001073          	unimp
 630:	0000                	.2byte	0x0
 632:	0000                	.2byte	0x0
 634:	0000                	.2byte	0x0
 636:	0000                	.2byte	0x0
 638:	0000                	.2byte	0x0
 63a:	0000                	.2byte	0x0
