
rv32mi-p-ma_addr:     file format elf32-littleriscv


Disassembly of section .text.init:

00001200 <_start>:
    1200:	04c0006f          	j	124c <reset_vector>

00001204 <trap_vector>:
    1204:	34202f73          	csrr	x30,mcause
    1208:	00800f93          	li	x31,8
    120c:	03ff0a63          	beq	x30,x31,1240 <write_tohost>
    1210:	00900f93          	li	x31,9
    1214:	03ff0663          	beq	x30,x31,1240 <write_tohost>
    1218:	00b00f93          	li	x31,11
    121c:	03ff0263          	beq	x30,x31,1240 <write_tohost>
    1220:	00000f17          	auipc	x30,0x0
    1224:	318f0f13          	addi	x30,x30,792 # 1538 <mtvec_handler>
    1228:	000f0463          	beqz	x30,1230 <trap_vector+0x2c>
    122c:	000f0067          	jr	x30
    1230:	34202f73          	csrr	x30,mcause
    1234:	000f5463          	bgez	x30,123c <handle_exception>
    1238:	0040006f          	j	123c <handle_exception>

0000123c <handle_exception>:
    123c:	5391e193          	ori	x3,x3,1337

00001240 <write_tohost>:
    1240:	0000ef17          	auipc	x30,0xe
    1244:	dc3f2023          	sw	x3,-576(x30) # f000 <tohost>
    1248:	ff9ff06f          	j	1240 <write_tohost>

0000124c <reset_vector>:
    124c:	00000093          	li	x1,0
    1250:	00000113          	li	x2,0
    1254:	00000193          	li	x3,0
    1258:	00000213          	li	x4,0
    125c:	00000293          	li	x5,0
    1260:	00000313          	li	x6,0
    1264:	00000393          	li	x7,0
    1268:	00000413          	li	x8,0
    126c:	00000493          	li	x9,0
    1270:	00000513          	li	x10,0
    1274:	00000593          	li	x11,0
    1278:	00000613          	li	x12,0
    127c:	00000693          	li	x13,0
    1280:	00000713          	li	x14,0
    1284:	00000793          	li	x15,0
    1288:	00000813          	li	x16,0
    128c:	00000893          	li	x17,0
    1290:	00000913          	li	x18,0
    1294:	00000993          	li	x19,0
    1298:	00000a13          	li	x20,0
    129c:	00000a93          	li	x21,0
    12a0:	00000b13          	li	x22,0
    12a4:	00000b93          	li	x23,0
    12a8:	00000c13          	li	x24,0
    12ac:	00000c93          	li	x25,0
    12b0:	00000d13          	li	x26,0
    12b4:	00000d93          	li	x27,0
    12b8:	00000e13          	li	x28,0
    12bc:	00000e93          	li	x29,0
    12c0:	00000f13          	li	x30,0
    12c4:	00000f93          	li	x31,0
    12c8:	f1402573          	csrr	x10,mhartid
    12cc:	00051063          	bnez	x10,12cc <reset_vector+0x80>
    12d0:	00000297          	auipc	x5,0x0
    12d4:	01028293          	addi	x5,x5,16 # 12e0 <reset_vector+0x94>
    12d8:	30529073          	csrw	mtvec,x5
    12dc:	18005073          	csrwi	satp,0
    12e0:	00000297          	auipc	x5,0x0
    12e4:	02028293          	addi	x5,x5,32 # 1300 <reset_vector+0xb4>
    12e8:	30529073          	csrw	mtvec,x5
    12ec:	800002b7          	lui	x5,0x80000
    12f0:	fff28293          	addi	x5,x5,-1 # 7fffffff <fromhost+0x7fff0fbf>
    12f4:	3b029073          	csrw	pmpaddr0,x5
    12f8:	01f00293          	li	x5,31
    12fc:	3a029073          	csrw	pmpcfg0,x5
    1300:	30405073          	csrwi	mie,0
    1304:	00000297          	auipc	x5,0x0
    1308:	01428293          	addi	x5,x5,20 # 1318 <reset_vector+0xcc>
    130c:	30529073          	csrw	mtvec,x5
    1310:	30205073          	csrwi	medeleg,0
    1314:	30305073          	csrwi	mideleg,0
    1318:	00000193          	li	x3,0
    131c:	00000297          	auipc	x5,0x0
    1320:	ee828293          	addi	x5,x5,-280 # 1204 <trap_vector>
    1324:	30529073          	csrw	mtvec,x5
    1328:	00100513          	li	x10,1
    132c:	01f51513          	slli	x10,x10,0x1f
    1330:	00054c63          	bltz	x10,1348 <reset_vector+0xfc>
    1334:	0ff0000f          	fence
    1338:	00100193          	li	x3,1
    133c:	05d00893          	li	x17,93
    1340:	00000513          	li	x10,0
    1344:	00000073          	ecall
    1348:	00000293          	li	x5,0
    134c:	00028a63          	beqz	x5,1360 <reset_vector+0x114>
    1350:	10529073          	csrw	stvec,x5
    1354:	0000b2b7          	lui	x5,0xb
    1358:	10928293          	addi	x5,x5,265 # b109 <_end+0x8ff9>
    135c:	30229073          	csrw	medeleg,x5
    1360:	30005073          	csrwi	mstatus,0
    1364:	00002537          	lui	x10,0x2
    1368:	80050513          	addi	x10,x10,-2048 # 1800 <mtvec_handler+0x2c8>
    136c:	30052073          	csrs	mstatus,x10
    1370:	00000297          	auipc	x5,0x0
    1374:	01428293          	addi	x5,x5,20 # 1384 <reset_vector+0x138>
    1378:	34129073          	csrw	mepc,x5
    137c:	f1402573          	csrr	x10,mhartid
    1380:	30200073          	mret
    1384:	00001417          	auipc	x8,0x1
    1388:	c7c40413          	addi	x8,x8,-900 # 2000 <begin_signature>
    138c:	00400493          	li	x9,4
    1390:	00200193          	li	x3,2
    1394:	00000397          	auipc	x7,0x0
    1398:	01c38393          	addi	x7,x7,28 # 13b0 <reset_vector+0x164>
    139c:	00140313          	addi	x6,x8,1
    13a0:	00141303          	lh	x6,1(x8)
    13a4:	ffffc3b7          	lui	x7,0xffffc
    13a8:	bcc38393          	addi	x7,x7,-1076 # ffffbbcc <fromhost+0xfffecb8c>
    13ac:	14731e63          	bne	x6,x7,1508 <fail>
    13b0:	00300193          	li	x3,3
    13b4:	00000397          	auipc	x7,0x0
    13b8:	01c38393          	addi	x7,x7,28 # 13d0 <reset_vector+0x184>
    13bc:	00140313          	addi	x6,x8,1
    13c0:	00145303          	lhu	x6,1(x8)
    13c4:	0000c3b7          	lui	x7,0xc
    13c8:	bcc38393          	addi	x7,x7,-1076 # bbcc <_end+0x9abc>
    13cc:	12731e63          	bne	x6,x7,1508 <fail>
    13d0:	00400193          	li	x3,4
    13d4:	00000397          	auipc	x7,0x0
    13d8:	01c38393          	addi	x7,x7,28 # 13f0 <reset_vector+0x1a4>
    13dc:	00140313          	addi	x6,x8,1
    13e0:	00142303          	lw	x6,1(x8)
    13e4:	99aac3b7          	lui	x7,0x99aac
    13e8:	bcc38393          	addi	x7,x7,-1076 # 99aabbcc <fromhost+0x99a9cb8c>
    13ec:	10731e63          	bne	x6,x7,1508 <fail>
    13f0:	00500193          	li	x3,5
    13f4:	00000397          	auipc	x7,0x0
    13f8:	01c38393          	addi	x7,x7,28 # 1410 <reset_vector+0x1c4>
    13fc:	00240313          	addi	x6,x8,2
    1400:	00242303          	lw	x6,2(x8)
    1404:	8899b3b7          	lui	x7,0x8899b
    1408:	abb38393          	addi	x7,x7,-1349 # 8899aabb <fromhost+0x8898ba7b>
    140c:	0e731e63          	bne	x6,x7,1508 <fail>
    1410:	00600193          	li	x3,6
    1414:	00000397          	auipc	x7,0x0
    1418:	01c38393          	addi	x7,x7,28 # 1430 <reset_vector+0x1e4>
    141c:	00340313          	addi	x6,x8,3
    1420:	00342303          	lw	x6,3(x8)
    1424:	7788a3b7          	lui	x7,0x7788a
    1428:	9aa38393          	addi	x7,x7,-1622 # 778899aa <fromhost+0x7787a96a>
    142c:	0c731e63          	bne	x6,x7,1508 <fail>
    1430:	00600493          	li	x9,6
    1434:	01600193          	li	x3,22
    1438:	00000397          	auipc	x7,0x0
    143c:	03038393          	addi	x7,x7,48 # 1468 <reset_vector+0x21c>
    1440:	00140313          	addi	x6,x8,1
    1444:	000410a3          	sh	x0,1(x8)
    1448:	00040303          	lb	x6,0(x8)
    144c:	0a030e63          	beqz	x6,1508 <fail>
    1450:	00340303          	lb	x6,3(x8)
    1454:	0a030a63          	beqz	x6,1508 <fail>
    1458:	00140303          	lb	x6,1(x8)
    145c:	0a031663          	bnez	x6,1508 <fail>
    1460:	00240303          	lb	x6,2(x8)
    1464:	0a031263          	bnez	x6,1508 <fail>
    1468:	01700193          	li	x3,23
    146c:	00000397          	auipc	x7,0x0
    1470:	03038393          	addi	x7,x7,48 # 149c <reset_vector+0x250>
    1474:	00540313          	addi	x6,x8,5
    1478:	000422a3          	sw	x0,5(x8)
    147c:	00440303          	lb	x6,4(x8)
    1480:	08030463          	beqz	x6,1508 <fail>
    1484:	00940303          	lb	x6,9(x8)
    1488:	08030063          	beqz	x6,1508 <fail>
    148c:	00540303          	lb	x6,5(x8)
    1490:	06031c63          	bnez	x6,1508 <fail>
    1494:	00840303          	lb	x6,8(x8)
    1498:	06031863          	bnez	x6,1508 <fail>
    149c:	01800193          	li	x3,24
    14a0:	00000397          	auipc	x7,0x0
    14a4:	03038393          	addi	x7,x7,48 # 14d0 <reset_vector+0x284>
    14a8:	00a40313          	addi	x6,x8,10
    14ac:	00042523          	sw	x0,10(x8)
    14b0:	00940303          	lb	x6,9(x8)
    14b4:	04030a63          	beqz	x6,1508 <fail>
    14b8:	00e40303          	lb	x6,14(x8)
    14bc:	04030663          	beqz	x6,1508 <fail>
    14c0:	00a40303          	lb	x6,10(x8)
    14c4:	04031263          	bnez	x6,1508 <fail>
    14c8:	00d40303          	lb	x6,13(x8)
    14cc:	02031e63          	bnez	x6,1508 <fail>
    14d0:	01900193          	li	x3,25
    14d4:	00000397          	auipc	x7,0x0
    14d8:	03038393          	addi	x7,x7,48 # 1504 <reset_vector+0x2b8>
    14dc:	00f40313          	addi	x6,x8,15
    14e0:	000427a3          	sw	x0,15(x8)
    14e4:	00e40303          	lb	x6,14(x8)
    14e8:	02030063          	beqz	x6,1508 <fail>
    14ec:	01340303          	lb	x6,19(x8)
    14f0:	00030c63          	beqz	x6,1508 <fail>
    14f4:	00f40303          	lb	x6,15(x8)
    14f8:	00031863          	bnez	x6,1508 <fail>
    14fc:	01240303          	lb	x6,18(x8)
    1500:	00031463          	bnez	x6,1508 <fail>
    1504:	02301063          	bne	x0,x3,1524 <pass>

00001508 <fail>:
    1508:	0ff0000f          	fence
    150c:	00018063          	beqz	x3,150c <fail+0x4>
    1510:	00119193          	slli	x3,x3,0x1
    1514:	0011e193          	ori	x3,x3,1
    1518:	05d00893          	li	x17,93
    151c:	00018513          	mv	x10,x3
    1520:	00000073          	ecall

00001524 <pass>:
    1524:	0ff0000f          	fence
    1528:	00100193          	li	x3,1
    152c:	05d00893          	li	x17,93
    1530:	00000513          	li	x10,0
    1534:	00000073          	ecall

00001538 <mtvec_handler>:
    1538:	342022f3          	csrr	x5,mcause
    153c:	fc9296e3          	bne	x5,x9,1508 <fail>
    1540:	343022f3          	csrr	x5,mtval
    1544:	00028863          	beqz	x5,1554 <mtvec_handler+0x1c>
    1548:	fc6290e3          	bne	x5,x6,1508 <fail>
    154c:	00028283          	lb	x5,0(x5)
    1550:	fa028ce3          	beqz	x5,1508 <fail>
    1554:	34139073          	csrw	mepc,x7
    1558:	30200073          	mret
    155c:	c0001073          	unimp
    1560:	0000                	.2byte	0x0
    1562:	0000                	.2byte	0x0
    1564:	0000                	.2byte	0x0
    1566:	0000                	.2byte	0x0
    1568:	0000                	.2byte	0x0
    156a:	0000                	.2byte	0x0
    156c:	0000                	.2byte	0x0
    156e:	0000                	.2byte	0x0
    1570:	0000                	.2byte	0x0
    1572:	0000                	.2byte	0x0
    1574:	0000                	.2byte	0x0
    1576:	0000                	.2byte	0x0
    1578:	0000                	.2byte	0x0
    157a:	0000                	.2byte	0x0
