
rv32ui-p-add:     file format elf32-littleriscv


Disassembly of section .text.init:

00001200 <_start>:
    1200:	0480006f          	j	1248 <reset_vector>

00001204 <trap_vector>:
    1204:	34202f73          	csrr	x30,mcause
    1208:	00800f93          	li	x31,8
    120c:	03ff0863          	beq	x30,x31,123c <write_tohost>
    1210:	00900f93          	li	x31,9
    1214:	03ff0463          	beq	x30,x31,123c <write_tohost>
    1218:	00b00f93          	li	x31,11
    121c:	03ff0063          	beq	x30,x31,123c <write_tohost>
    1220:	00000f13          	li	x30,0
    1224:	000f0463          	beqz	x30,122c <trap_vector+0x28>
    1228:	000f0067          	jr	x30
    122c:	34202f73          	csrr	x30,mcause
    1230:	000f5463          	bgez	x30,1238 <handle_exception>
    1234:	0040006f          	j	1238 <handle_exception>

00001238 <handle_exception>:
    1238:	5391e193          	ori	x3,x3,1337

0000123c <write_tohost>:
    123c:	0000ef17          	auipc	x30,0xe
    1240:	dc3f2223          	sw	x3,-572(x30) # f000 <tohost>
    1244:	ff9ff06f          	j	123c <write_tohost>

00001248 <reset_vector>:
    1248:	00000093          	li	x1,0
    124c:	00000113          	li	x2,0
    1250:	00000193          	li	x3,0
    1254:	00000213          	li	x4,0
    1258:	00000293          	li	x5,0
    125c:	00000313          	li	x6,0
    1260:	00000393          	li	x7,0
    1264:	00000413          	li	x8,0
    1268:	00000493          	li	x9,0
    126c:	00000513          	li	x10,0
    1270:	00000593          	li	x11,0
    1274:	00000613          	li	x12,0
    1278:	00000693          	li	x13,0
    127c:	00000713          	li	x14,0
    1280:	00000793          	li	x15,0
    1284:	00000813          	li	x16,0
    1288:	00000893          	li	x17,0
    128c:	00000913          	li	x18,0
    1290:	00000993          	li	x19,0
    1294:	00000a13          	li	x20,0
    1298:	00000a93          	li	x21,0
    129c:	00000b13          	li	x22,0
    12a0:	00000b93          	li	x23,0
    12a4:	00000c13          	li	x24,0
    12a8:	00000c93          	li	x25,0
    12ac:	00000d13          	li	x26,0
    12b0:	00000d93          	li	x27,0
    12b4:	00000e13          	li	x28,0
    12b8:	00000e93          	li	x29,0
    12bc:	00000f13          	li	x30,0
    12c0:	00000f93          	li	x31,0
    12c4:	f1402573          	csrr	x10,mhartid
    12c8:	00051063          	bnez	x10,12c8 <reset_vector+0x80>
    12cc:	00000297          	auipc	x5,0x0
    12d0:	01028293          	addi	x5,x5,16 # 12dc <reset_vector+0x94>
    12d4:	30529073          	csrw	mtvec,x5
    12d8:	18005073          	csrwi	satp,0
    12dc:	00000297          	auipc	x5,0x0
    12e0:	02028293          	addi	x5,x5,32 # 12fc <reset_vector+0xb4>
    12e4:	30529073          	csrw	mtvec,x5
    12e8:	800002b7          	lui	x5,0x80000
    12ec:	fff28293          	addi	x5,x5,-1 # 7fffffff <fromhost+0x7fff0fbf>
    12f0:	3b029073          	csrw	pmpaddr0,x5
    12f4:	01f00293          	li	x5,31
    12f8:	3a029073          	csrw	pmpcfg0,x5
    12fc:	30405073          	csrwi	mie,0
    1300:	00000297          	auipc	x5,0x0
    1304:	01428293          	addi	x5,x5,20 # 1314 <reset_vector+0xcc>
    1308:	30529073          	csrw	mtvec,x5
    130c:	30205073          	csrwi	medeleg,0
    1310:	30305073          	csrwi	mideleg,0
    1314:	00000193          	li	x3,0
    1318:	00000297          	auipc	x5,0x0
    131c:	eec28293          	addi	x5,x5,-276 # 1204 <trap_vector>
    1320:	30529073          	csrw	mtvec,x5
    1324:	00100513          	li	x10,1
    1328:	01f51513          	slli	x10,x10,0x1f
    132c:	00054c63          	bltz	x10,1344 <reset_vector+0xfc>
    1330:	0ff0000f          	fence
    1334:	00100193          	li	x3,1
    1338:	05d00893          	li	x17,93
    133c:	00000513          	li	x10,0
    1340:	00000073          	ecall
    1344:	00000293          	li	x5,0
    1348:	00028a63          	beqz	x5,135c <reset_vector+0x114>
    134c:	10529073          	csrw	stvec,x5
    1350:	0000b2b7          	lui	x5,0xb
    1354:	10928293          	addi	x5,x5,265 # b109 <_end+0x9109>
    1358:	30229073          	csrw	medeleg,x5
    135c:	30005073          	csrwi	mstatus,0
    1360:	00000297          	auipc	x5,0x0
    1364:	01428293          	addi	x5,x5,20 # 1374 <test_2>
    1368:	34129073          	csrw	mepc,x5
    136c:	f1402573          	csrr	x10,mhartid
    1370:	30200073          	mret

00001374 <test_2>:
    1374:	00200193          	li	x3,2
    1378:	00000093          	li	x1,0
    137c:	00000113          	li	x2,0
    1380:	00208733          	add	x14,x1,x2
    1384:	00000393          	li	x7,0
    1388:	4c771663          	bne	x14,x7,1854 <fail>

0000138c <test_3>:
    138c:	00300193          	li	x3,3
    1390:	00100093          	li	x1,1
    1394:	00100113          	li	x2,1
    1398:	00208733          	add	x14,x1,x2
    139c:	00200393          	li	x7,2
    13a0:	4a771a63          	bne	x14,x7,1854 <fail>

000013a4 <test_4>:
    13a4:	00400193          	li	x3,4
    13a8:	00300093          	li	x1,3
    13ac:	00700113          	li	x2,7
    13b0:	00208733          	add	x14,x1,x2
    13b4:	00a00393          	li	x7,10
    13b8:	48771e63          	bne	x14,x7,1854 <fail>

000013bc <test_5>:
    13bc:	00500193          	li	x3,5
    13c0:	00000093          	li	x1,0
    13c4:	ffff8137          	lui	x2,0xffff8
    13c8:	00208733          	add	x14,x1,x2
    13cc:	ffff83b7          	lui	x7,0xffff8
    13d0:	48771263          	bne	x14,x7,1854 <fail>

000013d4 <test_6>:
    13d4:	00600193          	li	x3,6
    13d8:	800000b7          	lui	x1,0x80000
    13dc:	00000113          	li	x2,0
    13e0:	00208733          	add	x14,x1,x2
    13e4:	800003b7          	lui	x7,0x80000
    13e8:	46771663          	bne	x14,x7,1854 <fail>

000013ec <test_7>:
    13ec:	00700193          	li	x3,7
    13f0:	800000b7          	lui	x1,0x80000
    13f4:	ffff8137          	lui	x2,0xffff8
    13f8:	00208733          	add	x14,x1,x2
    13fc:	7fff83b7          	lui	x7,0x7fff8
    1400:	44771a63          	bne	x14,x7,1854 <fail>

00001404 <test_8>:
    1404:	00800193          	li	x3,8
    1408:	00000093          	li	x1,0
    140c:	00008137          	lui	x2,0x8
    1410:	fff10113          	addi	x2,x2,-1 # 7fff <_end+0x5fff>
    1414:	00208733          	add	x14,x1,x2
    1418:	000083b7          	lui	x7,0x8
    141c:	fff38393          	addi	x7,x7,-1 # 7fff <_end+0x5fff>
    1420:	42771a63          	bne	x14,x7,1854 <fail>

00001424 <test_9>:
    1424:	00900193          	li	x3,9
    1428:	800000b7          	lui	x1,0x80000
    142c:	fff08093          	addi	x1,x1,-1 # 7fffffff <fromhost+0x7fff0fbf>
    1430:	00000113          	li	x2,0
    1434:	00208733          	add	x14,x1,x2
    1438:	800003b7          	lui	x7,0x80000
    143c:	fff38393          	addi	x7,x7,-1 # 7fffffff <fromhost+0x7fff0fbf>
    1440:	40771a63          	bne	x14,x7,1854 <fail>

00001444 <test_10>:
    1444:	00a00193          	li	x3,10
    1448:	800000b7          	lui	x1,0x80000
    144c:	fff08093          	addi	x1,x1,-1 # 7fffffff <fromhost+0x7fff0fbf>
    1450:	00008137          	lui	x2,0x8
    1454:	fff10113          	addi	x2,x2,-1 # 7fff <_end+0x5fff>
    1458:	00208733          	add	x14,x1,x2
    145c:	800083b7          	lui	x7,0x80008
    1460:	ffe38393          	addi	x7,x7,-2 # 80007ffe <fromhost+0x7fff8fbe>
    1464:	3e771863          	bne	x14,x7,1854 <fail>

00001468 <test_11>:
    1468:	00b00193          	li	x3,11
    146c:	800000b7          	lui	x1,0x80000
    1470:	00008137          	lui	x2,0x8
    1474:	fff10113          	addi	x2,x2,-1 # 7fff <_end+0x5fff>
    1478:	00208733          	add	x14,x1,x2
    147c:	800083b7          	lui	x7,0x80008
    1480:	fff38393          	addi	x7,x7,-1 # 80007fff <fromhost+0x7fff8fbf>
    1484:	3c771863          	bne	x14,x7,1854 <fail>

00001488 <test_12>:
    1488:	00c00193          	li	x3,12
    148c:	800000b7          	lui	x1,0x80000
    1490:	fff08093          	addi	x1,x1,-1 # 7fffffff <fromhost+0x7fff0fbf>
    1494:	ffff8137          	lui	x2,0xffff8
    1498:	00208733          	add	x14,x1,x2
    149c:	7fff83b7          	lui	x7,0x7fff8
    14a0:	fff38393          	addi	x7,x7,-1 # 7fff7fff <fromhost+0x7ffe8fbf>
    14a4:	3a771863          	bne	x14,x7,1854 <fail>

000014a8 <test_13>:
    14a8:	00d00193          	li	x3,13
    14ac:	00000093          	li	x1,0
    14b0:	fff00113          	li	x2,-1
    14b4:	00208733          	add	x14,x1,x2
    14b8:	fff00393          	li	x7,-1
    14bc:	38771c63          	bne	x14,x7,1854 <fail>

000014c0 <test_14>:
    14c0:	00e00193          	li	x3,14
    14c4:	fff00093          	li	x1,-1
    14c8:	00100113          	li	x2,1
    14cc:	00208733          	add	x14,x1,x2
    14d0:	00000393          	li	x7,0
    14d4:	38771063          	bne	x14,x7,1854 <fail>

000014d8 <test_15>:
    14d8:	00f00193          	li	x3,15
    14dc:	fff00093          	li	x1,-1
    14e0:	fff00113          	li	x2,-1
    14e4:	00208733          	add	x14,x1,x2
    14e8:	ffe00393          	li	x7,-2
    14ec:	36771463          	bne	x14,x7,1854 <fail>

000014f0 <test_16>:
    14f0:	01000193          	li	x3,16
    14f4:	00100093          	li	x1,1
    14f8:	80000137          	lui	x2,0x80000
    14fc:	fff10113          	addi	x2,x2,-1 # 7fffffff <fromhost+0x7fff0fbf>
    1500:	00208733          	add	x14,x1,x2
    1504:	800003b7          	lui	x7,0x80000
    1508:	34771663          	bne	x14,x7,1854 <fail>

0000150c <test_17>:
    150c:	01100193          	li	x3,17
    1510:	00d00093          	li	x1,13
    1514:	00b00113          	li	x2,11
    1518:	002080b3          	add	x1,x1,x2
    151c:	01800393          	li	x7,24
    1520:	32709a63          	bne	x1,x7,1854 <fail>

00001524 <test_18>:
    1524:	01200193          	li	x3,18
    1528:	00e00093          	li	x1,14
    152c:	00b00113          	li	x2,11
    1530:	00208133          	add	x2,x1,x2
    1534:	01900393          	li	x7,25
    1538:	30711e63          	bne	x2,x7,1854 <fail>

0000153c <test_19>:
    153c:	01300193          	li	x3,19
    1540:	00d00093          	li	x1,13
    1544:	001080b3          	add	x1,x1,x1
    1548:	01a00393          	li	x7,26
    154c:	30709463          	bne	x1,x7,1854 <fail>

00001550 <test_20>:
    1550:	01400193          	li	x3,20
    1554:	00000213          	li	x4,0
    1558:	00d00093          	li	x1,13
    155c:	00b00113          	li	x2,11
    1560:	00208733          	add	x14,x1,x2
    1564:	00070313          	mv	x6,x14
    1568:	00120213          	addi	x4,x4,1 # 1 <_start-0x11ff>
    156c:	00200293          	li	x5,2
    1570:	fe5214e3          	bne	x4,x5,1558 <test_20+0x8>
    1574:	01800393          	li	x7,24
    1578:	2c731e63          	bne	x6,x7,1854 <fail>

0000157c <test_21>:
    157c:	01500193          	li	x3,21
    1580:	00000213          	li	x4,0
    1584:	00e00093          	li	x1,14
    1588:	00b00113          	li	x2,11
    158c:	00208733          	add	x14,x1,x2
    1590:	00000013          	nop
    1594:	00070313          	mv	x6,x14
    1598:	00120213          	addi	x4,x4,1 # 1 <_start-0x11ff>
    159c:	00200293          	li	x5,2
    15a0:	fe5212e3          	bne	x4,x5,1584 <test_21+0x8>
    15a4:	01900393          	li	x7,25
    15a8:	2a731663          	bne	x6,x7,1854 <fail>

000015ac <test_22>:
    15ac:	01600193          	li	x3,22
    15b0:	00000213          	li	x4,0
    15b4:	00f00093          	li	x1,15
    15b8:	00b00113          	li	x2,11
    15bc:	00208733          	add	x14,x1,x2
    15c0:	00000013          	nop
    15c4:	00000013          	nop
    15c8:	00070313          	mv	x6,x14
    15cc:	00120213          	addi	x4,x4,1 # 1 <_start-0x11ff>
    15d0:	00200293          	li	x5,2
    15d4:	fe5210e3          	bne	x4,x5,15b4 <test_22+0x8>
    15d8:	01a00393          	li	x7,26
    15dc:	26731c63          	bne	x6,x7,1854 <fail>

000015e0 <test_23>:
    15e0:	01700193          	li	x3,23
    15e4:	00000213          	li	x4,0
    15e8:	00d00093          	li	x1,13
    15ec:	00b00113          	li	x2,11
    15f0:	00208733          	add	x14,x1,x2
    15f4:	00120213          	addi	x4,x4,1 # 1 <_start-0x11ff>
    15f8:	00200293          	li	x5,2
    15fc:	fe5216e3          	bne	x4,x5,15e8 <test_23+0x8>
    1600:	01800393          	li	x7,24
    1604:	24771863          	bne	x14,x7,1854 <fail>

00001608 <test_24>:
    1608:	01800193          	li	x3,24
    160c:	00000213          	li	x4,0
    1610:	00e00093          	li	x1,14
    1614:	00b00113          	li	x2,11
    1618:	00000013          	nop
    161c:	00208733          	add	x14,x1,x2
    1620:	00120213          	addi	x4,x4,1 # 1 <_start-0x11ff>
    1624:	00200293          	li	x5,2
    1628:	fe5214e3          	bne	x4,x5,1610 <test_24+0x8>
    162c:	01900393          	li	x7,25
    1630:	22771263          	bne	x14,x7,1854 <fail>

00001634 <test_25>:
    1634:	01900193          	li	x3,25
    1638:	00000213          	li	x4,0
    163c:	00f00093          	li	x1,15
    1640:	00b00113          	li	x2,11
    1644:	00000013          	nop
    1648:	00000013          	nop
    164c:	00208733          	add	x14,x1,x2
    1650:	00120213          	addi	x4,x4,1 # 1 <_start-0x11ff>
    1654:	00200293          	li	x5,2
    1658:	fe5212e3          	bne	x4,x5,163c <test_25+0x8>
    165c:	01a00393          	li	x7,26
    1660:	1e771a63          	bne	x14,x7,1854 <fail>

00001664 <test_26>:
    1664:	01a00193          	li	x3,26
    1668:	00000213          	li	x4,0
    166c:	00d00093          	li	x1,13
    1670:	00000013          	nop
    1674:	00b00113          	li	x2,11
    1678:	00208733          	add	x14,x1,x2
    167c:	00120213          	addi	x4,x4,1 # 1 <_start-0x11ff>
    1680:	00200293          	li	x5,2
    1684:	fe5214e3          	bne	x4,x5,166c <test_26+0x8>
    1688:	01800393          	li	x7,24
    168c:	1c771463          	bne	x14,x7,1854 <fail>

00001690 <test_27>:
    1690:	01b00193          	li	x3,27
    1694:	00000213          	li	x4,0
    1698:	00e00093          	li	x1,14
    169c:	00000013          	nop
    16a0:	00b00113          	li	x2,11
    16a4:	00000013          	nop
    16a8:	00208733          	add	x14,x1,x2
    16ac:	00120213          	addi	x4,x4,1 # 1 <_start-0x11ff>
    16b0:	00200293          	li	x5,2
    16b4:	fe5212e3          	bne	x4,x5,1698 <test_27+0x8>
    16b8:	01900393          	li	x7,25
    16bc:	18771c63          	bne	x14,x7,1854 <fail>

000016c0 <test_28>:
    16c0:	01c00193          	li	x3,28
    16c4:	00000213          	li	x4,0
    16c8:	00f00093          	li	x1,15
    16cc:	00000013          	nop
    16d0:	00000013          	nop
    16d4:	00b00113          	li	x2,11
    16d8:	00208733          	add	x14,x1,x2
    16dc:	00120213          	addi	x4,x4,1 # 1 <_start-0x11ff>
    16e0:	00200293          	li	x5,2
    16e4:	fe5212e3          	bne	x4,x5,16c8 <test_28+0x8>
    16e8:	01a00393          	li	x7,26
    16ec:	16771463          	bne	x14,x7,1854 <fail>

000016f0 <test_29>:
    16f0:	01d00193          	li	x3,29
    16f4:	00000213          	li	x4,0
    16f8:	00b00113          	li	x2,11
    16fc:	00d00093          	li	x1,13
    1700:	00208733          	add	x14,x1,x2
    1704:	00120213          	addi	x4,x4,1 # 1 <_start-0x11ff>
    1708:	00200293          	li	x5,2
    170c:	fe5216e3          	bne	x4,x5,16f8 <test_29+0x8>
    1710:	01800393          	li	x7,24
    1714:	14771063          	bne	x14,x7,1854 <fail>

00001718 <test_30>:
    1718:	01e00193          	li	x3,30
    171c:	00000213          	li	x4,0
    1720:	00b00113          	li	x2,11
    1724:	00e00093          	li	x1,14
    1728:	00000013          	nop
    172c:	00208733          	add	x14,x1,x2
    1730:	00120213          	addi	x4,x4,1 # 1 <_start-0x11ff>
    1734:	00200293          	li	x5,2
    1738:	fe5214e3          	bne	x4,x5,1720 <test_30+0x8>
    173c:	01900393          	li	x7,25
    1740:	10771a63          	bne	x14,x7,1854 <fail>

00001744 <test_31>:
    1744:	01f00193          	li	x3,31
    1748:	00000213          	li	x4,0
    174c:	00b00113          	li	x2,11
    1750:	00f00093          	li	x1,15
    1754:	00000013          	nop
    1758:	00000013          	nop
    175c:	00208733          	add	x14,x1,x2
    1760:	00120213          	addi	x4,x4,1 # 1 <_start-0x11ff>
    1764:	00200293          	li	x5,2
    1768:	fe5212e3          	bne	x4,x5,174c <test_31+0x8>
    176c:	01a00393          	li	x7,26
    1770:	0e771263          	bne	x14,x7,1854 <fail>

00001774 <test_32>:
    1774:	02000193          	li	x3,32
    1778:	00000213          	li	x4,0
    177c:	00b00113          	li	x2,11
    1780:	00000013          	nop
    1784:	00d00093          	li	x1,13
    1788:	00208733          	add	x14,x1,x2
    178c:	00120213          	addi	x4,x4,1 # 1 <_start-0x11ff>
    1790:	00200293          	li	x5,2
    1794:	fe5214e3          	bne	x4,x5,177c <test_32+0x8>
    1798:	01800393          	li	x7,24
    179c:	0a771c63          	bne	x14,x7,1854 <fail>

000017a0 <test_33>:
    17a0:	02100193          	li	x3,33
    17a4:	00000213          	li	x4,0
    17a8:	00b00113          	li	x2,11
    17ac:	00000013          	nop
    17b0:	00e00093          	li	x1,14
    17b4:	00000013          	nop
    17b8:	00208733          	add	x14,x1,x2
    17bc:	00120213          	addi	x4,x4,1 # 1 <_start-0x11ff>
    17c0:	00200293          	li	x5,2
    17c4:	fe5212e3          	bne	x4,x5,17a8 <test_33+0x8>
    17c8:	01900393          	li	x7,25
    17cc:	08771463          	bne	x14,x7,1854 <fail>

000017d0 <test_34>:
    17d0:	02200193          	li	x3,34
    17d4:	00000213          	li	x4,0
    17d8:	00b00113          	li	x2,11
    17dc:	00000013          	nop
    17e0:	00000013          	nop
    17e4:	00f00093          	li	x1,15
    17e8:	00208733          	add	x14,x1,x2
    17ec:	00120213          	addi	x4,x4,1 # 1 <_start-0x11ff>
    17f0:	00200293          	li	x5,2
    17f4:	fe5212e3          	bne	x4,x5,17d8 <test_34+0x8>
    17f8:	01a00393          	li	x7,26
    17fc:	04771c63          	bne	x14,x7,1854 <fail>

00001800 <test_35>:
    1800:	02300193          	li	x3,35
    1804:	00f00093          	li	x1,15
    1808:	00100133          	add	x2,x0,x1
    180c:	00f00393          	li	x7,15
    1810:	04711263          	bne	x2,x7,1854 <fail>

00001814 <test_36>:
    1814:	02400193          	li	x3,36
    1818:	02000093          	li	x1,32
    181c:	00008133          	add	x2,x1,x0
    1820:	02000393          	li	x7,32
    1824:	02711863          	bne	x2,x7,1854 <fail>

00001828 <test_37>:
    1828:	02500193          	li	x3,37
    182c:	000000b3          	add	x1,x0,x0
    1830:	00000393          	li	x7,0
    1834:	02709063          	bne	x1,x7,1854 <fail>

00001838 <test_38>:
    1838:	02600193          	li	x3,38
    183c:	01000093          	li	x1,16
    1840:	01e00113          	li	x2,30
    1844:	00208033          	add	x0,x1,x2
    1848:	00000393          	li	x7,0
    184c:	00701463          	bne	x0,x7,1854 <fail>
    1850:	02301063          	bne	x0,x3,1870 <pass>

00001854 <fail>:
    1854:	0ff0000f          	fence
    1858:	00018063          	beqz	x3,1858 <fail+0x4>
    185c:	00119193          	slli	x3,x3,0x1
    1860:	0011e193          	ori	x3,x3,1
    1864:	05d00893          	li	x17,93
    1868:	00018513          	mv	x10,x3
    186c:	00000073          	ecall

00001870 <pass>:
    1870:	0ff0000f          	fence
    1874:	00100193          	li	x3,1
    1878:	05d00893          	li	x17,93
    187c:	00000513          	li	x10,0
    1880:	00000073          	ecall
    1884:	c0001073          	unimp
    1888:	0000                	.2byte	0x0
    188a:	0000                	.2byte	0x0
    188c:	0000                	.2byte	0x0
    188e:	0000                	.2byte	0x0
    1890:	0000                	.2byte	0x0
    1892:	0000                	.2byte	0x0
    1894:	0000                	.2byte	0x0
    1896:	0000                	.2byte	0x0
    1898:	0000                	.2byte	0x0
    189a:	0000                	.2byte	0x0
    189c:	0000                	.2byte	0x0
    189e:	0000                	.2byte	0x0
    18a0:	0000                	.2byte	0x0
    18a2:	0000                	.2byte	0x0
    18a4:	0000                	.2byte	0x0
    18a6:	0000                	.2byte	0x0
    18a8:	0000                	.2byte	0x0
    18aa:	0000                	.2byte	0x0
    18ac:	0000                	.2byte	0x0
    18ae:	0000                	.2byte	0x0
    18b0:	0000                	.2byte	0x0
    18b2:	0000                	.2byte	0x0
    18b4:	0000                	.2byte	0x0
    18b6:	0000                	.2byte	0x0
    18b8:	0000                	.2byte	0x0
    18ba:	0000                	.2byte	0x0
