
median.riscv:     file format elf32-littleriscv


Disassembly of section .text.init:

80000000 <_start>:
80000000:	00000093          	li	ra,0
80000004:	00000113          	li	sp,0
80000008:	00000193          	li	gp,0
8000000c:	00000213          	li	tp,0
80000010:	00000293          	li	t0,0
80000014:	00000313          	li	t1,0
80000018:	00000393          	li	t2,0
8000001c:	00000413          	li	s0,0
80000020:	00000493          	li	s1,0
80000024:	00000513          	li	a0,0
80000028:	00000593          	li	a1,0
8000002c:	00000613          	li	a2,0
80000030:	00000693          	li	a3,0
80000034:	00000713          	li	a4,0
80000038:	00000793          	li	a5,0
8000003c:	00000813          	li	a6,0
80000040:	00000893          	li	a7,0
80000044:	00000913          	li	s2,0
80000048:	00000993          	li	s3,0
8000004c:	00000a13          	li	s4,0
80000050:	00000a93          	li	s5,0
80000054:	00000b13          	li	s6,0
80000058:	00000b93          	li	s7,0
8000005c:	00000c13          	li	s8,0
80000060:	00000c93          	li	s9,0
80000064:	00000d13          	li	s10,0
80000068:	00000d93          	li	s11,0
8000006c:	00000e13          	li	t3,0
80000070:	00000e93          	li	t4,0
80000074:	00000f13          	li	t5,0
80000078:	00000f93          	li	t6,0
8000007c:	0001e2b7          	lui	t0,0x1e
80000080:	3002a073          	csrs	mstatus,t0
80000084:	00100293          	li	t0,1
80000088:	01f29293          	slli	t0,t0,0x1f
8000008c:	0002ca63          	bltz	t0,800000a0 <_start+0xa0>
80000090:	00100513          	li	a0,1
80000094:	fffff297          	auipc	t0,0xfffff
80000098:	f6a2a623          	sw	a0,-148(t0) # 7ffff000 <tohost>
8000009c:	ff5ff06f          	j	80000090 <_start+0x90>
800000a0:	00000297          	auipc	t0,0x0
800000a4:	04028293          	addi	t0,t0,64 # 800000e0 <trap_entry>
800000a8:	30529073          	csrw	mtvec,t0
800000ac:	00004197          	auipc	gp,0x4
800000b0:	4f018193          	addi	gp,gp,1264 # 8000459c <__global_pointer$>
800000b4:	86318213          	addi	tp,gp,-1949 # 80003dff <_end+0x3f>
800000b8:	fc027213          	andi	tp,tp,-64
800000bc:	f1402573          	csrr	a0,mhartid
800000c0:	00100593          	li	a1,1
800000c4:	00b57063          	bgeu	a0,a1,800000c4 <_start+0xc4>
800000c8:	00150113          	addi	sp,a0,1
800000cc:	01111113          	slli	sp,sp,0x11
800000d0:	00410133          	add	sp,sp,tp
800000d4:	01151613          	slli	a2,a0,0x11
800000d8:	00c20233          	add	tp,tp,a2
800000dc:	0b10106f          	j	8000198c <_init>

800000e0 <trap_entry>:
800000e0:	ef010113          	addi	sp,sp,-272
800000e4:	00112223          	sw	ra,4(sp)
800000e8:	00212423          	sw	sp,8(sp)
800000ec:	00312623          	sw	gp,12(sp)
800000f0:	00412823          	sw	tp,16(sp)
800000f4:	00512a23          	sw	t0,20(sp)
800000f8:	00612c23          	sw	t1,24(sp)
800000fc:	00712e23          	sw	t2,28(sp)
80000100:	02812023          	sw	s0,32(sp)
80000104:	02912223          	sw	s1,36(sp)
80000108:	02a12423          	sw	a0,40(sp)
8000010c:	02b12623          	sw	a1,44(sp)
80000110:	02c12823          	sw	a2,48(sp)
80000114:	02d12a23          	sw	a3,52(sp)
80000118:	02e12c23          	sw	a4,56(sp)
8000011c:	02f12e23          	sw	a5,60(sp)
80000120:	05012023          	sw	a6,64(sp)
80000124:	05112223          	sw	a7,68(sp)
80000128:	05212423          	sw	s2,72(sp)
8000012c:	05312623          	sw	s3,76(sp)
80000130:	05412823          	sw	s4,80(sp)
80000134:	05512a23          	sw	s5,84(sp)
80000138:	05612c23          	sw	s6,88(sp)
8000013c:	05712e23          	sw	s7,92(sp)
80000140:	07812023          	sw	s8,96(sp)
80000144:	07912223          	sw	s9,100(sp)
80000148:	07a12423          	sw	s10,104(sp)
8000014c:	07b12623          	sw	s11,108(sp)
80000150:	07c12823          	sw	t3,112(sp)
80000154:	07d12a23          	sw	t4,116(sp)
80000158:	07e12c23          	sw	t5,120(sp)
8000015c:	07f12e23          	sw	t6,124(sp)
80000160:	34202573          	csrr	a0,mcause
80000164:	341025f3          	csrr	a1,mepc
80000168:	00010613          	mv	a2,sp
8000016c:	54c010ef          	jal	ra,800016b8 <handle_trap>
80000170:	34151073          	csrw	mepc,a0
80000174:	000022b7          	lui	t0,0x2
80000178:	80028293          	addi	t0,t0,-2048 # 1800 <buflen.1+0x17c0>
8000017c:	3002a073          	csrs	mstatus,t0
80000180:	00412083          	lw	ra,4(sp)
80000184:	00812103          	lw	sp,8(sp)
80000188:	00c12183          	lw	gp,12(sp)
8000018c:	01012203          	lw	tp,16(sp)
80000190:	01412283          	lw	t0,20(sp)
80000194:	01812303          	lw	t1,24(sp)
80000198:	01c12383          	lw	t2,28(sp)
8000019c:	02012403          	lw	s0,32(sp)
800001a0:	02412483          	lw	s1,36(sp)
800001a4:	02812503          	lw	a0,40(sp)
800001a8:	02c12583          	lw	a1,44(sp)
800001ac:	03012603          	lw	a2,48(sp)
800001b0:	03412683          	lw	a3,52(sp)
800001b4:	03812703          	lw	a4,56(sp)
800001b8:	03c12783          	lw	a5,60(sp)
800001bc:	04012803          	lw	a6,64(sp)
800001c0:	04412883          	lw	a7,68(sp)
800001c4:	04812903          	lw	s2,72(sp)
800001c8:	04c12983          	lw	s3,76(sp)
800001cc:	05012a03          	lw	s4,80(sp)
800001d0:	05412a83          	lw	s5,84(sp)
800001d4:	05812b03          	lw	s6,88(sp)
800001d8:	05c12b83          	lw	s7,92(sp)
800001dc:	06012c03          	lw	s8,96(sp)
800001e0:	06412c83          	lw	s9,100(sp)
800001e4:	06812d03          	lw	s10,104(sp)
800001e8:	06c12d83          	lw	s11,108(sp)
800001ec:	07012e03          	lw	t3,112(sp)
800001f0:	07412e83          	lw	t4,116(sp)
800001f4:	07812f03          	lw	t5,120(sp)
800001f8:	07c12f83          	lw	t6,124(sp)
800001fc:	11010113          	addi	sp,sp,272
80000200:	30200073          	mret

Disassembly of section .text:

80001000 <median>:
80001000:	00251793          	slli	a5,a0,0x2
80001004:	ffc78793          	addi	a5,a5,-4
80001008:	00f60733          	add	a4,a2,a5
8000100c:	00062023          	sw	zero,0(a2)
80001010:	00072023          	sw	zero,0(a4)
80001014:	00200713          	li	a4,2
80001018:	02a75e63          	bge	a4,a0,80001054 <median+0x54>
8000101c:	00b78533          	add	a0,a5,a1
80001020:	00460613          	addi	a2,a2,4
80001024:	ffc50513          	addi	a0,a0,-4
80001028:	0045a783          	lw	a5,4(a1)
8000102c:	0005a703          	lw	a4,0(a1)
80001030:	0085a683          	lw	a3,8(a1)
80001034:	02f75e63          	bge	a4,a5,80001070 <median+0x70>
80001038:	00d7c663          	blt	a5,a3,80001044 <median+0x44>
8000103c:	00068793          	mv	a5,a3
80001040:	00e6cc63          	blt	a3,a4,80001058 <median+0x58>
80001044:	00f62023          	sw	a5,0(a2)
80001048:	00458593          	addi	a1,a1,4
8000104c:	00460613          	addi	a2,a2,4
80001050:	fca59ce3          	bne	a1,a0,80001028 <median+0x28>
80001054:	00008067          	ret
80001058:	00070793          	mv	a5,a4
8000105c:	00f62023          	sw	a5,0(a2)
80001060:	00458593          	addi	a1,a1,4
80001064:	00460613          	addi	a2,a2,4
80001068:	fca590e3          	bne	a1,a0,80001028 <median+0x28>
8000106c:	fe9ff06f          	j	80001054 <median+0x54>
80001070:	fed744e3          	blt	a4,a3,80001058 <median+0x58>
80001074:	fcd7d8e3          	bge	a5,a3,80001044 <median+0x44>
80001078:	00068793          	mv	a5,a3
8000107c:	00f62023          	sw	a5,0(a2)
80001080:	00458593          	addi	a1,a1,4
80001084:	00460613          	addi	a2,a2,4
80001088:	faa590e3          	bne	a1,a0,80001028 <median+0x28>
8000108c:	fc9ff06f          	j	80001054 <median+0x54>

80001090 <vprintfmt>:
80001090:	eb010113          	addi	sp,sp,-336
80001094:	14812423          	sw	s0,328(sp)
80001098:	15212023          	sw	s2,320(sp)
8000109c:	13312e23          	sw	s3,316(sp)
800010a0:	13412c23          	sw	s4,312(sp)
800010a4:	14112623          	sw	ra,332(sp)
800010a8:	14912223          	sw	s1,324(sp)
800010ac:	13512a23          	sw	s5,308(sp)
800010b0:	13612823          	sw	s6,304(sp)
800010b4:	13712623          	sw	s7,300(sp)
800010b8:	13812423          	sw	s8,296(sp)
800010bc:	13912223          	sw	s9,292(sp)
800010c0:	13a12023          	sw	s10,288(sp)
800010c4:	11b12e23          	sw	s11,284(sp)
800010c8:	00050993          	mv	s3,a0
800010cc:	00058913          	mv	s2,a1
800010d0:	00060413          	mv	s0,a2
800010d4:	00d12623          	sw	a3,12(sp)
800010d8:	02500a13          	li	s4,37
800010dc:	0140006f          	j	800010f0 <vprintfmt+0x60>
800010e0:	06050463          	beqz	a0,80001148 <vprintfmt+0xb8>
800010e4:	00090593          	mv	a1,s2
800010e8:	00140413          	addi	s0,s0,1
800010ec:	000980e7          	jalr	s3
800010f0:	00044503          	lbu	a0,0(s0)
800010f4:	ff4516e3          	bne	a0,s4,800010e0 <vprintfmt+0x50>
800010f8:	00144683          	lbu	a3,1(s0)
800010fc:	00140a93          	addi	s5,s0,1
80001100:	02000793          	li	a5,32
80001104:	000a8713          	mv	a4,s5
80001108:	00f12423          	sw	a5,8(sp)
8000110c:	fff00493          	li	s1,-1
80001110:	fff00b13          	li	s6,-1
80001114:	00000593          	li	a1,0
80001118:	fdd68793          	addi	a5,a3,-35
8000111c:	0ff7f793          	zext.b	a5,a5
80001120:	05500613          	li	a2,85
80001124:	00170413          	addi	s0,a4,1
80001128:	06f66e63          	bltu	a2,a5,800011a4 <vprintfmt+0x114>
8000112c:	00002617          	auipc	a2,0x2
80001130:	c9460613          	addi	a2,a2,-876 # 80002dc0 <main+0xfc>
80001134:	00279793          	slli	a5,a5,0x2
80001138:	00c787b3          	add	a5,a5,a2
8000113c:	0007a783          	lw	a5,0(a5)
80001140:	00c787b3          	add	a5,a5,a2
80001144:	00078067          	jr	a5
80001148:	14c12083          	lw	ra,332(sp)
8000114c:	14812403          	lw	s0,328(sp)
80001150:	14412483          	lw	s1,324(sp)
80001154:	14012903          	lw	s2,320(sp)
80001158:	13c12983          	lw	s3,316(sp)
8000115c:	13812a03          	lw	s4,312(sp)
80001160:	13412a83          	lw	s5,308(sp)
80001164:	13012b03          	lw	s6,304(sp)
80001168:	12c12b83          	lw	s7,300(sp)
8000116c:	12812c03          	lw	s8,296(sp)
80001170:	12412c83          	lw	s9,292(sp)
80001174:	12012d03          	lw	s10,288(sp)
80001178:	11c12d83          	lw	s11,284(sp)
8000117c:	15010113          	addi	sp,sp,336
80001180:	00008067          	ret
80001184:	00d12423          	sw	a3,8(sp)
80001188:	00174683          	lbu	a3,1(a4)
8000118c:	05500613          	li	a2,85
80001190:	00040713          	mv	a4,s0
80001194:	fdd68793          	addi	a5,a3,-35
80001198:	0ff7f793          	zext.b	a5,a5
8000119c:	00170413          	addi	s0,a4,1
800011a0:	f8f676e3          	bgeu	a2,a5,8000112c <vprintfmt+0x9c>
800011a4:	00090593          	mv	a1,s2
800011a8:	02500513          	li	a0,37
800011ac:	000980e7          	jalr	s3
800011b0:	000a8413          	mv	s0,s5
800011b4:	f3dff06f          	j	800010f0 <vprintfmt+0x60>
800011b8:	00174603          	lbu	a2,1(a4)
800011bc:	00900793          	li	a5,9
800011c0:	fd068493          	addi	s1,a3,-48
800011c4:	fd060713          	addi	a4,a2,-48
800011c8:	00060693          	mv	a3,a2
800011cc:	36e7ec63          	bltu	a5,a4,80001544 <vprintfmt+0x4b4>
800011d0:	00040713          	mv	a4,s0
800011d4:	00900513          	li	a0,9
800011d8:	00249793          	slli	a5,s1,0x2
800011dc:	009787b3          	add	a5,a5,s1
800011e0:	00170713          	addi	a4,a4,1
800011e4:	00179793          	slli	a5,a5,0x1
800011e8:	00c787b3          	add	a5,a5,a2
800011ec:	00074603          	lbu	a2,0(a4)
800011f0:	fd078493          	addi	s1,a5,-48
800011f4:	fd060793          	addi	a5,a2,-48
800011f8:	00060693          	mv	a3,a2
800011fc:	fcf57ee3          	bgeu	a0,a5,800011d8 <vprintfmt+0x148>
80001200:	f00b5ce3          	bgez	s6,80001118 <vprintfmt+0x88>
80001204:	00048b13          	mv	s6,s1
80001208:	fff00493          	li	s1,-1
8000120c:	f0dff06f          	j	80001118 <vprintfmt+0x88>
80001210:	00174683          	lbu	a3,1(a4)
80001214:	00040713          	mv	a4,s0
80001218:	f01ff06f          	j	80001118 <vprintfmt+0x88>
8000121c:	00090593          	mv	a1,s2
80001220:	02500513          	li	a0,37
80001224:	000980e7          	jalr	s3
80001228:	ec9ff06f          	j	800010f0 <vprintfmt+0x60>
8000122c:	00c12783          	lw	a5,12(sp)
80001230:	00174683          	lbu	a3,1(a4)
80001234:	00040713          	mv	a4,s0
80001238:	0007a483          	lw	s1,0(a5)
8000123c:	00478793          	addi	a5,a5,4
80001240:	00f12623          	sw	a5,12(sp)
80001244:	fbdff06f          	j	80001200 <vprintfmt+0x170>
80001248:	03000513          	li	a0,48
8000124c:	00090593          	mv	a1,s2
80001250:	000980e7          	jalr	s3
80001254:	00090593          	mv	a1,s2
80001258:	07800513          	li	a0,120
8000125c:	000980e7          	jalr	s3
80001260:	00c12783          	lw	a5,12(sp)
80001264:	01000a93          	li	s5,16
80001268:	00000d93          	li	s11,0
8000126c:	00478713          	addi	a4,a5,4
80001270:	00c12783          	lw	a5,12(sp)
80001274:	00000c13          	li	s8,0
80001278:	0007a483          	lw	s1,0(a5)
8000127c:	00e12623          	sw	a4,12(sp)
80001280:	000a8613          	mv	a2,s5
80001284:	00000693          	li	a3,0
80001288:	00048513          	mv	a0,s1
8000128c:	000c0593          	mv	a1,s8
80001290:	48c010ef          	jal	ra,8000271c <__umoddi3>
80001294:	00a12823          	sw	a0,16(sp)
80001298:	278d8263          	beq	s11,s8,800014fc <vprintfmt+0x46c>
8000129c:	01410b93          	addi	s7,sp,20
800012a0:	00100c93          	li	s9,1
800012a4:	000a8613          	mv	a2,s5
800012a8:	00000693          	li	a3,0
800012ac:	00048513          	mv	a0,s1
800012b0:	000c0593          	mv	a1,s8
800012b4:	6a5000ef          	jal	ra,80002158 <__udivdi3>
800012b8:	000a8613          	mv	a2,s5
800012bc:	00000693          	li	a3,0
800012c0:	00050493          	mv	s1,a0
800012c4:	00058c13          	mv	s8,a1
800012c8:	454010ef          	jal	ra,8000271c <__umoddi3>
800012cc:	00aba023          	sw	a0,0(s7)
800012d0:	000c8d13          	mv	s10,s9
800012d4:	004b8b93          	addi	s7,s7,4
800012d8:	001c8c93          	addi	s9,s9,1
800012dc:	fd8d94e3          	bne	s11,s8,800012a4 <vprintfmt+0x214>
800012e0:	fd54f2e3          	bgeu	s1,s5,800012a4 <vprintfmt+0x214>
800012e4:	fffb0a93          	addi	s5,s6,-1
800012e8:	fffc8493          	addi	s1,s9,-1
800012ec:	016cdc63          	bge	s9,s6,80001304 <vprintfmt+0x274>
800012f0:	00812503          	lw	a0,8(sp)
800012f4:	fffa8a93          	addi	s5,s5,-1
800012f8:	00090593          	mv	a1,s2
800012fc:	000980e7          	jalr	s3
80001300:	ff5498e3          	bne	s1,s5,800012f0 <vprintfmt+0x260>
80001304:	002d1793          	slli	a5,s10,0x2
80001308:	01078793          	addi	a5,a5,16
8000130c:	00278ab3          	add	s5,a5,sp
80001310:	00900493          	li	s1,9
80001314:	0080006f          	j	8000131c <vprintfmt+0x28c>
80001318:	00078d13          	mv	s10,a5
8000131c:	000aa503          	lw	a0,0(s5)
80001320:	00090593          	mv	a1,s2
80001324:	ffca8a93          	addi	s5,s5,-4
80001328:	00a4b7b3          	sltu	a5,s1,a0
8000132c:	40f007b3          	neg	a5,a5
80001330:	0277f793          	andi	a5,a5,39
80001334:	03078793          	addi	a5,a5,48
80001338:	00f50533          	add	a0,a0,a5
8000133c:	000980e7          	jalr	s3
80001340:	fffd0793          	addi	a5,s10,-1
80001344:	fc0d1ae3          	bnez	s10,80001318 <vprintfmt+0x288>
80001348:	da9ff06f          	j	800010f0 <vprintfmt+0x60>
8000134c:	00100793          	li	a5,1
80001350:	1ab7ce63          	blt	a5,a1,8000150c <vprintfmt+0x47c>
80001354:	00c12783          	lw	a5,12(sp)
80001358:	0007a483          	lw	s1,0(a5)
8000135c:	00478793          	addi	a5,a5,4
80001360:	00f12623          	sw	a5,12(sp)
80001364:	41f4dc13          	srai	s8,s1,0x1f
80001368:	020c5063          	bgez	s8,80001388 <vprintfmt+0x2f8>
8000136c:	00090593          	mv	a1,s2
80001370:	02d00513          	li	a0,45
80001374:	000980e7          	jalr	s3
80001378:	00903733          	snez	a4,s1
8000137c:	418007b3          	neg	a5,s8
80001380:	409004b3          	neg	s1,s1
80001384:	40e78c33          	sub	s8,a5,a4
80001388:	00a00a93          	li	s5,10
8000138c:	00000d93          	li	s11,0
80001390:	ef1ff06f          	j	80001280 <vprintfmt+0x1f0>
80001394:	00174683          	lbu	a3,1(a4)
80001398:	00158593          	addi	a1,a1,1
8000139c:	00040713          	mv	a4,s0
800013a0:	d79ff06f          	j	80001118 <vprintfmt+0x88>
800013a4:	01000a93          	li	s5,16
800013a8:	00000d93          	li	s11,0
800013ac:	00100793          	li	a5,1
800013b0:	12b7c663          	blt	a5,a1,800014dc <vprintfmt+0x44c>
800013b4:	00c12783          	lw	a5,12(sp)
800013b8:	00478713          	addi	a4,a5,4
800013bc:	eb5ff06f          	j	80001270 <vprintfmt+0x1e0>
800013c0:	00c12783          	lw	a5,12(sp)
800013c4:	0007aa83          	lw	s5,0(a5)
800013c8:	00478b93          	addi	s7,a5,4
800013cc:	060a8263          	beqz	s5,80001430 <vprintfmt+0x3a0>
800013d0:	0d605463          	blez	s6,80001498 <vprintfmt+0x408>
800013d4:	00812703          	lw	a4,8(sp)
800013d8:	02d00793          	li	a5,45
800013dc:	06f71e63          	bne	a4,a5,80001458 <vprintfmt+0x3c8>
800013e0:	000ac503          	lbu	a0,0(s5)
800013e4:	02050863          	beqz	a0,80001414 <vprintfmt+0x384>
800013e8:	fff00c13          	li	s8,-1
800013ec:	0004c663          	bltz	s1,800013f8 <vprintfmt+0x368>
800013f0:	fff48493          	addi	s1,s1,-1
800013f4:	01848e63          	beq	s1,s8,80001410 <vprintfmt+0x380>
800013f8:	00090593          	mv	a1,s2
800013fc:	001a8a93          	addi	s5,s5,1
80001400:	000980e7          	jalr	s3
80001404:	000ac503          	lbu	a0,0(s5)
80001408:	fffb0b13          	addi	s6,s6,-1
8000140c:	fe0510e3          	bnez	a0,800013ec <vprintfmt+0x35c>
80001410:	01605c63          	blez	s6,80001428 <vprintfmt+0x398>
80001414:	fffb0b13          	addi	s6,s6,-1
80001418:	00090593          	mv	a1,s2
8000141c:	02000513          	li	a0,32
80001420:	000980e7          	jalr	s3
80001424:	fe0b18e3          	bnez	s6,80001414 <vprintfmt+0x384>
80001428:	01712623          	sw	s7,12(sp)
8000142c:	cc5ff06f          	j	800010f0 <vprintfmt+0x60>
80001430:	00002a97          	auipc	s5,0x2
80001434:	950a8a93          	addi	s5,s5,-1712 # 80002d80 <main+0xbc>
80001438:	02800513          	li	a0,40
8000143c:	fb6056e3          	blez	s6,800013e8 <vprintfmt+0x358>
80001440:	00812703          	lw	a4,8(sp)
80001444:	02d00793          	li	a5,45
80001448:	00002a97          	auipc	s5,0x2
8000144c:	938a8a93          	addi	s5,s5,-1736 # 80002d80 <main+0xbc>
80001450:	02800513          	li	a0,40
80001454:	f8f70ae3          	beq	a4,a5,800013e8 <vprintfmt+0x358>
80001458:	000a8793          	mv	a5,s5
8000145c:	009a86b3          	add	a3,s5,s1
80001460:	00049863          	bnez	s1,80001470 <vprintfmt+0x3e0>
80001464:	0200006f          	j	80001484 <vprintfmt+0x3f4>
80001468:	00178793          	addi	a5,a5,1
8000146c:	00d78663          	beq	a5,a3,80001478 <vprintfmt+0x3e8>
80001470:	0007c703          	lbu	a4,0(a5)
80001474:	fe071ae3          	bnez	a4,80001468 <vprintfmt+0x3d8>
80001478:	415787b3          	sub	a5,a5,s5
8000147c:	40fb0b33          	sub	s6,s6,a5
80001480:	01605c63          	blez	s6,80001498 <vprintfmt+0x408>
80001484:	00812503          	lw	a0,8(sp)
80001488:	fffb0b13          	addi	s6,s6,-1
8000148c:	00090593          	mv	a1,s2
80001490:	000980e7          	jalr	s3
80001494:	fe0b18e3          	bnez	s6,80001484 <vprintfmt+0x3f4>
80001498:	000ac503          	lbu	a0,0(s5)
8000149c:	f80506e3          	beqz	a0,80001428 <vprintfmt+0x398>
800014a0:	fff00c13          	li	s8,-1
800014a4:	f49ff06f          	j	800013ec <vprintfmt+0x35c>
800014a8:	fffb4793          	not	a5,s6
800014ac:	41f7d793          	srai	a5,a5,0x1f
800014b0:	00174683          	lbu	a3,1(a4)
800014b4:	00fb7b33          	and	s6,s6,a5
800014b8:	00040713          	mv	a4,s0
800014bc:	c5dff06f          	j	80001118 <vprintfmt+0x88>
800014c0:	00c12783          	lw	a5,12(sp)
800014c4:	00090593          	mv	a1,s2
800014c8:	0007a503          	lw	a0,0(a5)
800014cc:	00478b93          	addi	s7,a5,4
800014d0:	000980e7          	jalr	s3
800014d4:	01712623          	sw	s7,12(sp)
800014d8:	c19ff06f          	j	800010f0 <vprintfmt+0x60>
800014dc:	00c12783          	lw	a5,12(sp)
800014e0:	00778b93          	addi	s7,a5,7
800014e4:	ff8bfb93          	andi	s7,s7,-8
800014e8:	008b8793          	addi	a5,s7,8
800014ec:	000ba483          	lw	s1,0(s7)
800014f0:	004bac03          	lw	s8,4(s7)
800014f4:	00f12623          	sw	a5,12(sp)
800014f8:	d89ff06f          	j	80001280 <vprintfmt+0x1f0>
800014fc:	db54f0e3          	bgeu	s1,s5,8000129c <vprintfmt+0x20c>
80001500:	00000d13          	li	s10,0
80001504:	00100c93          	li	s9,1
80001508:	dddff06f          	j	800012e4 <vprintfmt+0x254>
8000150c:	00c12783          	lw	a5,12(sp)
80001510:	00778b93          	addi	s7,a5,7
80001514:	ff8bfb93          	andi	s7,s7,-8
80001518:	008b8793          	addi	a5,s7,8
8000151c:	000ba483          	lw	s1,0(s7)
80001520:	004bac03          	lw	s8,4(s7)
80001524:	00f12623          	sw	a5,12(sp)
80001528:	e41ff06f          	j	80001368 <vprintfmt+0x2d8>
8000152c:	00a00a93          	li	s5,10
80001530:	00000d93          	li	s11,0
80001534:	e79ff06f          	j	800013ac <vprintfmt+0x31c>
80001538:	00800a93          	li	s5,8
8000153c:	00000d93          	li	s11,0
80001540:	e6dff06f          	j	800013ac <vprintfmt+0x31c>
80001544:	00040713          	mv	a4,s0
80001548:	cb9ff06f          	j	80001200 <vprintfmt+0x170>

8000154c <sprintf_putch.0>:
8000154c:	0005a783          	lw	a5,0(a1)
80001550:	00a78023          	sb	a0,0(a5)
80001554:	0005a783          	lw	a5,0(a1)
80001558:	00178793          	addi	a5,a5,1
8000155c:	00f5a023          	sw	a5,0(a1)
80001560:	00008067          	ret

80001564 <putchar>:
80001564:	04022803          	lw	a6,64(tp) # 40 <buflen.1>
80001568:	00020793          	mv	a5,tp
8000156c:	010787b3          	add	a5,a5,a6
80001570:	f8010113          	addi	sp,sp,-128
80001574:	00180713          	addi	a4,a6,1
80001578:	04e22023          	sw	a4,64(tp) # 40 <buflen.1>
8000157c:	00a78023          	sb	a0,0(a5)
80001580:	00a00593          	li	a1,10
80001584:	03f10793          	addi	a5,sp,63
80001588:	fc07f793          	andi	a5,a5,-64
8000158c:	00b50c63          	beq	a0,a1,800015a4 <putchar+0x40>
80001590:	04000593          	li	a1,64
80001594:	00b70863          	beq	a4,a1,800015a4 <putchar+0x40>
80001598:	00000513          	li	a0,0
8000159c:	08010113          	addi	sp,sp,128
800015a0:	00008067          	ret
800015a4:	04000513          	li	a0,64
800015a8:	00a7a023          	sw	a0,0(a5)
800015ac:	00000593          	li	a1,0
800015b0:	00b7a223          	sw	a1,4(a5)
800015b4:	00100313          	li	t1,1
800015b8:	0067a423          	sw	t1,8(a5)
800015bc:	00000393          	li	t2,0
800015c0:	0077a623          	sw	t2,12(a5)
800015c4:	00020813          	mv	a6,tp
800015c8:	0107a823          	sw	a6,16(a5)
800015cc:	00000893          	li	a7,0
800015d0:	0117aa23          	sw	a7,20(a5)
800015d4:	00e7ac23          	sw	a4,24(a5)
800015d8:	41f75593          	srai	a1,a4,0x1f
800015dc:	00b7ae23          	sw	a1,28(a5)
800015e0:	0ff0000f          	fence
800015e4:	ffffe717          	auipc	a4,0xffffe
800015e8:	a1c70713          	addi	a4,a4,-1508 # 7ffff000 <tohost>
800015ec:	00f72023          	sw	a5,0(a4)
800015f0:	00000593          	li	a1,0
800015f4:	00b72223          	sw	a1,4(a4)
800015f8:	0ff0000f          	fence
800015fc:	04022023          	sw	zero,64(tp) # 40 <buflen.1>
80001600:	0007a703          	lw	a4,0(a5)
80001604:	00000513          	li	a0,0
80001608:	0047a783          	lw	a5,4(a5)
8000160c:	08010113          	addi	sp,sp,128
80001610:	00008067          	ret

80001614 <setStats>:
80001614:	b00027f3          	csrr	a5,mcycle
80001618:	00002717          	auipc	a4,0x2
8000161c:	78c70713          	addi	a4,a4,1932 # 80003da4 <counters>
80001620:	00050a63          	beqz	a0,80001634 <setStats+0x20>
80001624:	00f72023          	sw	a5,0(a4)
80001628:	b02027f3          	csrr	a5,minstret
8000162c:	00f72223          	sw	a5,4(a4)
80001630:	00008067          	ret
80001634:	00072683          	lw	a3,0(a4)
80001638:	00002897          	auipc	a7,0x2
8000163c:	76488893          	addi	a7,a7,1892 # 80003d9c <counter_names>
80001640:	40d787b3          	sub	a5,a5,a3
80001644:	00001697          	auipc	a3,0x1
80001648:	74468693          	addi	a3,a3,1860 # 80002d88 <main+0xc4>
8000164c:	00d8a023          	sw	a3,0(a7)
80001650:	00f72023          	sw	a5,0(a4)
80001654:	b02026f3          	csrr	a3,minstret
80001658:	00472603          	lw	a2,4(a4)
8000165c:	ffffe817          	auipc	a6,0xffffe
80001660:	9a480813          	addi	a6,a6,-1628 # 7ffff000 <tohost>
80001664:	00078513          	mv	a0,a5
80001668:	00a82023          	sw	a0,0(a6)
8000166c:	00000593          	li	a1,0
80001670:	40c687b3          	sub	a5,a3,a2
80001674:	00b82223          	sw	a1,4(a6)
80001678:	00000693          	li	a3,0
8000167c:	00001597          	auipc	a1,0x1
80001680:	71458593          	addi	a1,a1,1812 # 80002d90 <main+0xcc>
80001684:	00f82023          	sw	a5,0(a6)
80001688:	00b8a223          	sw	a1,4(a7)
8000168c:	00f72223          	sw	a5,4(a4)
80001690:	00d82223          	sw	a3,4(a6)
80001694:	00008067          	ret

80001698 <tohost_exit>:
80001698:	00151693          	slli	a3,a0,0x1
8000169c:	0016e713          	ori	a4,a3,1
800016a0:	ffffe697          	auipc	a3,0xffffe
800016a4:	96068693          	addi	a3,a3,-1696 # 7ffff000 <tohost>
800016a8:	00000793          	li	a5,0
800016ac:	00e6a023          	sw	a4,0(a3)
800016b0:	00f6a223          	sw	a5,4(a3)
800016b4:	0000006f          	j	800016b4 <tohost_exit+0x1c>

800016b8 <handle_trap>:
800016b8:	00001637          	lui	a2,0x1
800016bc:	ffffe797          	auipc	a5,0xffffe
800016c0:	94478793          	addi	a5,a5,-1724 # 7ffff000 <tohost>
800016c4:	a7360613          	addi	a2,a2,-1421 # a73 <buflen.1+0xa33>
800016c8:	00000693          	li	a3,0
800016cc:	00c7a023          	sw	a2,0(a5)
800016d0:	00d7a223          	sw	a3,4(a5)
800016d4:	0000006f          	j	800016d4 <handle_trap+0x1c>

800016d8 <exit>:
800016d8:	ff010113          	addi	sp,sp,-16
800016dc:	00112623          	sw	ra,12(sp)
800016e0:	fb9ff0ef          	jal	ra,80001698 <tohost_exit>

800016e4 <abort>:
800016e4:	ffffe797          	auipc	a5,0xffffe
800016e8:	91c78793          	addi	a5,a5,-1764 # 7ffff000 <tohost>
800016ec:	10d00613          	li	a2,269
800016f0:	00000693          	li	a3,0
800016f4:	00c7a023          	sw	a2,0(a5)
800016f8:	00d7a223          	sw	a3,4(a5)
800016fc:	0000006f          	j	800016fc <abort+0x18>

80001700 <printstr>:
80001700:	00054783          	lbu	a5,0(a0)
80001704:	f8010113          	addi	sp,sp,-128
80001708:	03f10693          	addi	a3,sp,63
8000170c:	00050813          	mv	a6,a0
80001710:	fc06f693          	andi	a3,a3,-64
80001714:	00000893          	li	a7,0
80001718:	06078c63          	beqz	a5,80001790 <printstr+0x90>
8000171c:	00050793          	mv	a5,a0
80001720:	0017c703          	lbu	a4,1(a5)
80001724:	00178793          	addi	a5,a5,1
80001728:	fe071ce3          	bnez	a4,80001720 <printstr+0x20>
8000172c:	40a78333          	sub	t1,a5,a0
80001730:	00000393          	li	t2,0
80001734:	04000713          	li	a4,64
80001738:	00e6a023          	sw	a4,0(a3)
8000173c:	00000793          	li	a5,0
80001740:	00f6a223          	sw	a5,4(a3)
80001744:	00100713          	li	a4,1
80001748:	00e6a423          	sw	a4,8(a3)
8000174c:	00000793          	li	a5,0
80001750:	00f6a623          	sw	a5,12(a3)
80001754:	0106a823          	sw	a6,16(a3)
80001758:	0116aa23          	sw	a7,20(a3)
8000175c:	0066ac23          	sw	t1,24(a3)
80001760:	0076ae23          	sw	t2,28(a3)
80001764:	0ff0000f          	fence
80001768:	ffffe617          	auipc	a2,0xffffe
8000176c:	89860613          	addi	a2,a2,-1896 # 7ffff000 <tohost>
80001770:	00d62023          	sw	a3,0(a2)
80001774:	00000793          	li	a5,0
80001778:	00f62223          	sw	a5,4(a2)
8000177c:	0ff0000f          	fence
80001780:	0006a703          	lw	a4,0(a3)
80001784:	0046a783          	lw	a5,4(a3)
80001788:	08010113          	addi	sp,sp,128
8000178c:	00008067          	ret
80001790:	00000313          	li	t1,0
80001794:	00000393          	li	t2,0
80001798:	f9dff06f          	j	80001734 <printstr+0x34>

8000179c <thread_entry>:
8000179c:	00051063          	bnez	a0,8000179c <thread_entry>
800017a0:	00008067          	ret

800017a4 <printhex>:
800017a4:	fd010113          	addi	sp,sp,-48
800017a8:	00050713          	mv	a4,a0
800017ac:	02112623          	sw	ra,44(sp)
800017b0:	00c10513          	addi	a0,sp,12
800017b4:	01b10693          	addi	a3,sp,27
800017b8:	00900813          	li	a6,9
800017bc:	0080006f          	j	800017c4 <printhex+0x20>
800017c0:	00078693          	mv	a3,a5
800017c4:	00f77793          	andi	a5,a4,15
800017c8:	00f837b3          	sltu	a5,a6,a5
800017cc:	40f007b3          	neg	a5,a5
800017d0:	0277f793          	andi	a5,a5,39
800017d4:	00f77613          	andi	a2,a4,15
800017d8:	03078793          	addi	a5,a5,48
800017dc:	00f607b3          	add	a5,a2,a5
800017e0:	00f68023          	sb	a5,0(a3)
800017e4:	01c59613          	slli	a2,a1,0x1c
800017e8:	00475713          	srli	a4,a4,0x4
800017ec:	fff68793          	addi	a5,a3,-1
800017f0:	00e66733          	or	a4,a2,a4
800017f4:	0045d593          	srli	a1,a1,0x4
800017f8:	fcd514e3          	bne	a0,a3,800017c0 <printhex+0x1c>
800017fc:	00010e23          	sb	zero,28(sp)
80001800:	f01ff0ef          	jal	ra,80001700 <printstr>
80001804:	02c12083          	lw	ra,44(sp)
80001808:	03010113          	addi	sp,sp,48
8000180c:	00008067          	ret

80001810 <printf>:
80001810:	fc010113          	addi	sp,sp,-64
80001814:	02410313          	addi	t1,sp,36
80001818:	00050e13          	mv	t3,a0
8000181c:	02b12223          	sw	a1,36(sp)
80001820:	02c12423          	sw	a2,40(sp)
80001824:	02d12623          	sw	a3,44(sp)
80001828:	00000517          	auipc	a0,0x0
8000182c:	d3c50513          	addi	a0,a0,-708 # 80001564 <putchar>
80001830:	00030693          	mv	a3,t1
80001834:	000e0613          	mv	a2,t3
80001838:	00000593          	li	a1,0
8000183c:	00112e23          	sw	ra,28(sp)
80001840:	02e12823          	sw	a4,48(sp)
80001844:	02f12a23          	sw	a5,52(sp)
80001848:	03012c23          	sw	a6,56(sp)
8000184c:	03112e23          	sw	a7,60(sp)
80001850:	00612623          	sw	t1,12(sp)
80001854:	83dff0ef          	jal	ra,80001090 <vprintfmt>
80001858:	01c12083          	lw	ra,28(sp)
8000185c:	00000513          	li	a0,0
80001860:	04010113          	addi	sp,sp,64
80001864:	00008067          	ret

80001868 <sprintf>:
80001868:	fb010113          	addi	sp,sp,-80
8000186c:	03810313          	addi	t1,sp,56
80001870:	02812423          	sw	s0,40(sp)
80001874:	00a12623          	sw	a0,12(sp)
80001878:	02c12c23          	sw	a2,56(sp)
8000187c:	02d12e23          	sw	a3,60(sp)
80001880:	00050413          	mv	s0,a0
80001884:	00058613          	mv	a2,a1
80001888:	00000517          	auipc	a0,0x0
8000188c:	cc450513          	addi	a0,a0,-828 # 8000154c <sprintf_putch.0>
80001890:	00c10593          	addi	a1,sp,12
80001894:	00030693          	mv	a3,t1
80001898:	02112623          	sw	ra,44(sp)
8000189c:	04f12223          	sw	a5,68(sp)
800018a0:	04e12023          	sw	a4,64(sp)
800018a4:	05012423          	sw	a6,72(sp)
800018a8:	05112623          	sw	a7,76(sp)
800018ac:	00612e23          	sw	t1,28(sp)
800018b0:	fe0ff0ef          	jal	ra,80001090 <vprintfmt>
800018b4:	00c12783          	lw	a5,12(sp)
800018b8:	00078023          	sb	zero,0(a5)
800018bc:	00c12503          	lw	a0,12(sp)
800018c0:	02c12083          	lw	ra,44(sp)
800018c4:	40850533          	sub	a0,a0,s0
800018c8:	02812403          	lw	s0,40(sp)
800018cc:	05010113          	addi	sp,sp,80
800018d0:	00008067          	ret

800018d4 <memcpy>:
800018d4:	00b567b3          	or	a5,a0,a1
800018d8:	00c7e7b3          	or	a5,a5,a2
800018dc:	0037f793          	andi	a5,a5,3
800018e0:	00c506b3          	add	a3,a0,a2
800018e4:	02078463          	beqz	a5,8000190c <memcpy+0x38>
800018e8:	00c58633          	add	a2,a1,a2
800018ec:	00050793          	mv	a5,a0
800018f0:	02d57e63          	bgeu	a0,a3,8000192c <memcpy+0x58>
800018f4:	0005c703          	lbu	a4,0(a1)
800018f8:	00158593          	addi	a1,a1,1
800018fc:	00178793          	addi	a5,a5,1
80001900:	fee78fa3          	sb	a4,-1(a5)
80001904:	feb618e3          	bne	a2,a1,800018f4 <memcpy+0x20>
80001908:	00008067          	ret
8000190c:	fed57ee3          	bgeu	a0,a3,80001908 <memcpy+0x34>
80001910:	00050793          	mv	a5,a0
80001914:	0005a703          	lw	a4,0(a1)
80001918:	00478793          	addi	a5,a5,4
8000191c:	00458593          	addi	a1,a1,4
80001920:	fee7ae23          	sw	a4,-4(a5)
80001924:	fed7e8e3          	bltu	a5,a3,80001914 <memcpy+0x40>
80001928:	00008067          	ret
8000192c:	00008067          	ret

80001930 <memset>:
80001930:	00c567b3          	or	a5,a0,a2
80001934:	0037f793          	andi	a5,a5,3
80001938:	00c50633          	add	a2,a0,a2
8000193c:	02078063          	beqz	a5,8000195c <memset+0x2c>
80001940:	0ff5f593          	zext.b	a1,a1
80001944:	00050793          	mv	a5,a0
80001948:	04c57063          	bgeu	a0,a2,80001988 <memset+0x58>
8000194c:	00178793          	addi	a5,a5,1
80001950:	feb78fa3          	sb	a1,-1(a5)
80001954:	fec79ce3          	bne	a5,a2,8000194c <memset+0x1c>
80001958:	00008067          	ret
8000195c:	0ff5f593          	zext.b	a1,a1
80001960:	00859713          	slli	a4,a1,0x8
80001964:	00b70733          	add	a4,a4,a1
80001968:	01071793          	slli	a5,a4,0x10
8000196c:	00f70733          	add	a4,a4,a5
80001970:	fec574e3          	bgeu	a0,a2,80001958 <memset+0x28>
80001974:	00050793          	mv	a5,a0
80001978:	00478793          	addi	a5,a5,4
8000197c:	fee7ae23          	sw	a4,-4(a5)
80001980:	fec7ece3          	bltu	a5,a2,80001978 <memset+0x48>
80001984:	00008067          	ret
80001988:	00008067          	ret

8000198c <_init>:
8000198c:	f6010113          	addi	sp,sp,-160
80001990:	00002797          	auipc	a5,0x2
80001994:	41c78793          	addi	a5,a5,1052 # 80003dac <_tdata_begin>
80001998:	09412423          	sw	s4,136(sp)
8000199c:	00002a17          	auipc	s4,0x2
800019a0:	410a0a13          	addi	s4,s4,1040 # 80003dac <_tdata_begin>
800019a4:	09312623          	sw	s3,140(sp)
800019a8:	40fa09b3          	sub	s3,s4,a5
800019ac:	08912a23          	sw	s1,148(sp)
800019b0:	09212823          	sw	s2,144(sp)
800019b4:	00050493          	mv	s1,a0
800019b8:	00058913          	mv	s2,a1
800019bc:	00020513          	mv	a0,tp
800019c0:	00078593          	mv	a1,a5
800019c4:	00098613          	mv	a2,s3
800019c8:	08112e23          	sw	ra,156(sp)
800019cc:	08812c23          	sw	s0,152(sp)
800019d0:	09512223          	sw	s5,132(sp)
800019d4:	00020a93          	mv	s5,tp
800019d8:	efdff0ef          	jal	ra,800018d4 <memcpy>
800019dc:	86818613          	addi	a2,gp,-1944 # 80003e04 <_tbss_end>
800019e0:	41460633          	sub	a2,a2,s4
800019e4:	00000593          	li	a1,0
800019e8:	013a8533          	add	a0,s5,s3
800019ec:	f45ff0ef          	jal	ra,80001930 <memset>
800019f0:	00090593          	mv	a1,s2
800019f4:	00048513          	mv	a0,s1
800019f8:	da5ff0ef          	jal	ra,8000179c <thread_entry>
800019fc:	00000593          	li	a1,0
80001a00:	00000513          	li	a0,0
80001a04:	2c0010ef          	jal	ra,80002cc4 <main>
80001a08:	00002917          	auipc	s2,0x2
80001a0c:	39c90913          	addi	s2,s2,924 # 80003da4 <counters>
80001a10:	00092683          	lw	a3,0(s2)
80001a14:	03f10413          	addi	s0,sp,63
80001a18:	fc047413          	andi	s0,s0,-64
80001a1c:	00050493          	mv	s1,a0
80001a20:	04069463          	bnez	a3,80001a68 <_init+0xdc>
80001a24:	00492683          	lw	a3,4(s2)
80001a28:	00069663          	bnez	a3,80001a34 <_init+0xa8>
80001a2c:	00048513          	mv	a0,s1
80001a30:	c69ff0ef          	jal	ra,80001698 <tohost_exit>
80001a34:	00040913          	mv	s2,s0
80001a38:	00002997          	auipc	s3,0x2
80001a3c:	36498993          	addi	s3,s3,868 # 80003d9c <counter_names>
80001a40:	0049a603          	lw	a2,4(s3)
80001a44:	00090513          	mv	a0,s2
80001a48:	00001597          	auipc	a1,0x1
80001a4c:	36c58593          	addi	a1,a1,876 # 80002db4 <main+0xf0>
80001a50:	e19ff0ef          	jal	ra,80001868 <sprintf>
80001a54:	00a90933          	add	s2,s2,a0
80001a58:	fd240ae3          	beq	s0,s2,80001a2c <_init+0xa0>
80001a5c:	00040513          	mv	a0,s0
80001a60:	ca1ff0ef          	jal	ra,80001700 <printstr>
80001a64:	fc9ff06f          	j	80001a2c <_init+0xa0>
80001a68:	00002997          	auipc	s3,0x2
80001a6c:	33498993          	addi	s3,s3,820 # 80003d9c <counter_names>
80001a70:	0009a603          	lw	a2,0(s3)
80001a74:	00001597          	auipc	a1,0x1
80001a78:	34058593          	addi	a1,a1,832 # 80002db4 <main+0xf0>
80001a7c:	00040513          	mv	a0,s0
80001a80:	de9ff0ef          	jal	ra,80001868 <sprintf>
80001a84:	00492683          	lw	a3,4(s2)
80001a88:	00a40933          	add	s2,s0,a0
80001a8c:	fc0686e3          	beqz	a3,80001a58 <_init+0xcc>
80001a90:	fb1ff06f          	j	80001a40 <_init+0xb4>

80001a94 <strlen>:
80001a94:	00054783          	lbu	a5,0(a0)
80001a98:	00078e63          	beqz	a5,80001ab4 <strlen+0x20>
80001a9c:	00050793          	mv	a5,a0
80001aa0:	0017c703          	lbu	a4,1(a5)
80001aa4:	00178793          	addi	a5,a5,1
80001aa8:	fe071ce3          	bnez	a4,80001aa0 <strlen+0xc>
80001aac:	40a78533          	sub	a0,a5,a0
80001ab0:	00008067          	ret
80001ab4:	00000513          	li	a0,0
80001ab8:	00008067          	ret

80001abc <strnlen>:
80001abc:	00b506b3          	add	a3,a0,a1
80001ac0:	00050793          	mv	a5,a0
80001ac4:	00059863          	bnez	a1,80001ad4 <strnlen+0x18>
80001ac8:	0240006f          	j	80001aec <strnlen+0x30>
80001acc:	00178793          	addi	a5,a5,1
80001ad0:	00f68a63          	beq	a3,a5,80001ae4 <strnlen+0x28>
80001ad4:	0007c703          	lbu	a4,0(a5)
80001ad8:	fe071ae3          	bnez	a4,80001acc <strnlen+0x10>
80001adc:	40a78533          	sub	a0,a5,a0
80001ae0:	00008067          	ret
80001ae4:	40a68533          	sub	a0,a3,a0
80001ae8:	00008067          	ret
80001aec:	00000513          	li	a0,0
80001af0:	00008067          	ret

80001af4 <strcmp>:
80001af4:	00054783          	lbu	a5,0(a0)
80001af8:	00158593          	addi	a1,a1,1
80001afc:	00150513          	addi	a0,a0,1
80001b00:	fff5c703          	lbu	a4,-1(a1)
80001b04:	00078863          	beqz	a5,80001b14 <strcmp+0x20>
80001b08:	fee786e3          	beq	a5,a4,80001af4 <strcmp>
80001b0c:	40e78533          	sub	a0,a5,a4
80001b10:	00008067          	ret
80001b14:	00000793          	li	a5,0
80001b18:	ff5ff06f          	j	80001b0c <strcmp+0x18>

80001b1c <strcpy>:
80001b1c:	00050793          	mv	a5,a0
80001b20:	0005c703          	lbu	a4,0(a1)
80001b24:	00178793          	addi	a5,a5,1
80001b28:	00158593          	addi	a1,a1,1
80001b2c:	fee78fa3          	sb	a4,-1(a5)
80001b30:	fe0718e3          	bnez	a4,80001b20 <strcpy+0x4>
80001b34:	00008067          	ret

80001b38 <atol>:
80001b38:	00054703          	lbu	a4,0(a0)
80001b3c:	02000693          	li	a3,32
80001b40:	00050793          	mv	a5,a0
80001b44:	00d71863          	bne	a4,a3,80001b54 <atol+0x1c>
80001b48:	0017c703          	lbu	a4,1(a5)
80001b4c:	00178793          	addi	a5,a5,1
80001b50:	fed70ce3          	beq	a4,a3,80001b48 <atol+0x10>
80001b54:	02d00693          	li	a3,45
80001b58:	06d70063          	beq	a4,a3,80001bb8 <atol+0x80>
80001b5c:	02b00693          	li	a3,43
80001b60:	04d70063          	beq	a4,a3,80001ba0 <atol+0x68>
80001b64:	0007c683          	lbu	a3,0(a5)
80001b68:	00000593          	li	a1,0
80001b6c:	04068263          	beqz	a3,80001bb0 <atol+0x78>
80001b70:	00000513          	li	a0,0
80001b74:	00178793          	addi	a5,a5,1
80001b78:	00251713          	slli	a4,a0,0x2
80001b7c:	fd068613          	addi	a2,a3,-48
80001b80:	0007c683          	lbu	a3,0(a5)
80001b84:	00a70733          	add	a4,a4,a0
80001b88:	00171713          	slli	a4,a4,0x1
80001b8c:	00e60533          	add	a0,a2,a4
80001b90:	fe0692e3          	bnez	a3,80001b74 <atol+0x3c>
80001b94:	02058063          	beqz	a1,80001bb4 <atol+0x7c>
80001b98:	40a00533          	neg	a0,a0
80001b9c:	00008067          	ret
80001ba0:	0017c683          	lbu	a3,1(a5)
80001ba4:	00000593          	li	a1,0
80001ba8:	00178793          	addi	a5,a5,1
80001bac:	fc0692e3          	bnez	a3,80001b70 <atol+0x38>
80001bb0:	00000513          	li	a0,0
80001bb4:	00008067          	ret
80001bb8:	0017c683          	lbu	a3,1(a5)
80001bbc:	00100593          	li	a1,1
80001bc0:	00178793          	addi	a5,a5,1
80001bc4:	fa0696e3          	bnez	a3,80001b70 <atol+0x38>
80001bc8:	00000513          	li	a0,0
80001bcc:	fe9ff06f          	j	80001bb4 <atol+0x7c>

80001bd0 <__moddi3>:
80001bd0:	fc010113          	addi	sp,sp,-64
80001bd4:	02912a23          	sw	s1,52(sp)
80001bd8:	02112e23          	sw	ra,60(sp)
80001bdc:	02812c23          	sw	s0,56(sp)
80001be0:	03212823          	sw	s2,48(sp)
80001be4:	03312623          	sw	s3,44(sp)
80001be8:	03412423          	sw	s4,40(sp)
80001bec:	03512223          	sw	s5,36(sp)
80001bf0:	03612023          	sw	s6,32(sp)
80001bf4:	01712e23          	sw	s7,28(sp)
80001bf8:	01812c23          	sw	s8,24(sp)
80001bfc:	01912a23          	sw	s9,20(sp)
80001c00:	01a12823          	sw	s10,16(sp)
80001c04:	01b12623          	sw	s11,12(sp)
80001c08:	00000493          	li	s1,0
80001c0c:	0005dc63          	bgez	a1,80001c24 <__moddi3+0x54>
80001c10:	00a037b3          	snez	a5,a0
80001c14:	40b005b3          	neg	a1,a1
80001c18:	40f585b3          	sub	a1,a1,a5
80001c1c:	40a00533          	neg	a0,a0
80001c20:	fff00493          	li	s1,-1
80001c24:	0006da63          	bgez	a3,80001c38 <__moddi3+0x68>
80001c28:	00c037b3          	snez	a5,a2
80001c2c:	40d006b3          	neg	a3,a3
80001c30:	40f686b3          	sub	a3,a3,a5
80001c34:	40c00633          	neg	a2,a2
80001c38:	00060a13          	mv	s4,a2
80001c3c:	00050413          	mv	s0,a0
80001c40:	00058b13          	mv	s6,a1
80001c44:	2c069e63          	bnez	a3,80001f20 <__moddi3+0x350>
80001c48:	800037b7          	lui	a5,0x80003
80001c4c:	f1878793          	addi	a5,a5,-232 # 80002f18 <__global_pointer$+0xffffe97c>
80001c50:	14c5fa63          	bgeu	a1,a2,80001da4 <__moddi3+0x1d4>
80001c54:	00010737          	lui	a4,0x10
80001c58:	12e67c63          	bgeu	a2,a4,80001d90 <__moddi3+0x1c0>
80001c5c:	10063713          	sltiu	a4,a2,256
80001c60:	00174713          	xori	a4,a4,1
80001c64:	00371713          	slli	a4,a4,0x3
80001c68:	00e656b3          	srl	a3,a2,a4
80001c6c:	00d787b3          	add	a5,a5,a3
80001c70:	0007c783          	lbu	a5,0(a5)
80001c74:	00e787b3          	add	a5,a5,a4
80001c78:	02000713          	li	a4,32
80001c7c:	40f709b3          	sub	s3,a4,a5
80001c80:	00f70c63          	beq	a4,a5,80001c98 <__moddi3+0xc8>
80001c84:	013595b3          	sll	a1,a1,s3
80001c88:	00f557b3          	srl	a5,a0,a5
80001c8c:	01361a33          	sll	s4,a2,s3
80001c90:	00b7eb33          	or	s6,a5,a1
80001c94:	01351433          	sll	s0,a0,s3
80001c98:	010a5b93          	srli	s7,s4,0x10
80001c9c:	000b8593          	mv	a1,s7
80001ca0:	010a1a93          	slli	s5,s4,0x10
80001ca4:	000b0513          	mv	a0,s6
80001ca8:	771000ef          	jal	ra,80002c18 <__hidden___udivsi3>
80001cac:	010ada93          	srli	s5,s5,0x10
80001cb0:	000a8593          	mv	a1,s5
80001cb4:	739000ef          	jal	ra,80002bec <__mulsi3>
80001cb8:	00050913          	mv	s2,a0
80001cbc:	000b8593          	mv	a1,s7
80001cc0:	000b0513          	mv	a0,s6
80001cc4:	79d000ef          	jal	ra,80002c60 <__umodsi3>
80001cc8:	01051513          	slli	a0,a0,0x10
80001ccc:	01045793          	srli	a5,s0,0x10
80001cd0:	00a7e7b3          	or	a5,a5,a0
80001cd4:	0127fa63          	bgeu	a5,s2,80001ce8 <__moddi3+0x118>
80001cd8:	00fa07b3          	add	a5,s4,a5
80001cdc:	0147e663          	bltu	a5,s4,80001ce8 <__moddi3+0x118>
80001ce0:	0127f463          	bgeu	a5,s2,80001ce8 <__moddi3+0x118>
80001ce4:	014787b3          	add	a5,a5,s4
80001ce8:	41278933          	sub	s2,a5,s2
80001cec:	000b8593          	mv	a1,s7
80001cf0:	00090513          	mv	a0,s2
80001cf4:	725000ef          	jal	ra,80002c18 <__hidden___udivsi3>
80001cf8:	000a8593          	mv	a1,s5
80001cfc:	6f1000ef          	jal	ra,80002bec <__mulsi3>
80001d00:	00050a93          	mv	s5,a0
80001d04:	000b8593          	mv	a1,s7
80001d08:	00090513          	mv	a0,s2
80001d0c:	755000ef          	jal	ra,80002c60 <__umodsi3>
80001d10:	01041413          	slli	s0,s0,0x10
80001d14:	01051513          	slli	a0,a0,0x10
80001d18:	01045413          	srli	s0,s0,0x10
80001d1c:	00a46433          	or	s0,s0,a0
80001d20:	01547a63          	bgeu	s0,s5,80001d34 <__moddi3+0x164>
80001d24:	008a0433          	add	s0,s4,s0
80001d28:	01446663          	bltu	s0,s4,80001d34 <__moddi3+0x164>
80001d2c:	01547463          	bgeu	s0,s5,80001d34 <__moddi3+0x164>
80001d30:	01440433          	add	s0,s0,s4
80001d34:	41540433          	sub	s0,s0,s5
80001d38:	01345533          	srl	a0,s0,s3
80001d3c:	00000593          	li	a1,0
80001d40:	00048a63          	beqz	s1,80001d54 <__moddi3+0x184>
80001d44:	00a037b3          	snez	a5,a0
80001d48:	40b005b3          	neg	a1,a1
80001d4c:	40f585b3          	sub	a1,a1,a5
80001d50:	40a00533          	neg	a0,a0
80001d54:	03c12083          	lw	ra,60(sp)
80001d58:	03812403          	lw	s0,56(sp)
80001d5c:	03412483          	lw	s1,52(sp)
80001d60:	03012903          	lw	s2,48(sp)
80001d64:	02c12983          	lw	s3,44(sp)
80001d68:	02812a03          	lw	s4,40(sp)
80001d6c:	02412a83          	lw	s5,36(sp)
80001d70:	02012b03          	lw	s6,32(sp)
80001d74:	01c12b83          	lw	s7,28(sp)
80001d78:	01812c03          	lw	s8,24(sp)
80001d7c:	01412c83          	lw	s9,20(sp)
80001d80:	01012d03          	lw	s10,16(sp)
80001d84:	00c12d83          	lw	s11,12(sp)
80001d88:	04010113          	addi	sp,sp,64
80001d8c:	00008067          	ret
80001d90:	010006b7          	lui	a3,0x1000
80001d94:	01000713          	li	a4,16
80001d98:	ecd668e3          	bltu	a2,a3,80001c68 <__moddi3+0x98>
80001d9c:	01800713          	li	a4,24
80001da0:	ec9ff06f          	j	80001c68 <__moddi3+0x98>
80001da4:	00000713          	li	a4,0
80001da8:	00060c63          	beqz	a2,80001dc0 <__moddi3+0x1f0>
80001dac:	00010737          	lui	a4,0x10
80001db0:	14e67e63          	bgeu	a2,a4,80001f0c <__moddi3+0x33c>
80001db4:	10063713          	sltiu	a4,a2,256
80001db8:	00174713          	xori	a4,a4,1
80001dbc:	00371713          	slli	a4,a4,0x3
80001dc0:	00e656b3          	srl	a3,a2,a4
80001dc4:	00d787b3          	add	a5,a5,a3
80001dc8:	0007c783          	lbu	a5,0(a5)
80001dcc:	40c58933          	sub	s2,a1,a2
80001dd0:	00e787b3          	add	a5,a5,a4
80001dd4:	02000713          	li	a4,32
80001dd8:	40f709b3          	sub	s3,a4,a5
80001ddc:	0af70e63          	beq	a4,a5,80001e98 <__moddi3+0x2c8>
80001de0:	01361a33          	sll	s4,a2,s3
80001de4:	00f5d933          	srl	s2,a1,a5
80001de8:	010a5b93          	srli	s7,s4,0x10
80001dec:	00f557b3          	srl	a5,a0,a5
80001df0:	013595b3          	sll	a1,a1,s3
80001df4:	00b7eab3          	or	s5,a5,a1
80001df8:	01351433          	sll	s0,a0,s3
80001dfc:	000b8593          	mv	a1,s7
80001e00:	010a1b13          	slli	s6,s4,0x10
80001e04:	00090513          	mv	a0,s2
80001e08:	611000ef          	jal	ra,80002c18 <__hidden___udivsi3>
80001e0c:	010b5b13          	srli	s6,s6,0x10
80001e10:	000b0593          	mv	a1,s6
80001e14:	5d9000ef          	jal	ra,80002bec <__mulsi3>
80001e18:	00050c13          	mv	s8,a0
80001e1c:	000b8593          	mv	a1,s7
80001e20:	00090513          	mv	a0,s2
80001e24:	63d000ef          	jal	ra,80002c60 <__umodsi3>
80001e28:	01051513          	slli	a0,a0,0x10
80001e2c:	010ad713          	srli	a4,s5,0x10
80001e30:	00a76733          	or	a4,a4,a0
80001e34:	01877a63          	bgeu	a4,s8,80001e48 <__moddi3+0x278>
80001e38:	00ea0733          	add	a4,s4,a4
80001e3c:	01476663          	bltu	a4,s4,80001e48 <__moddi3+0x278>
80001e40:	01877463          	bgeu	a4,s8,80001e48 <__moddi3+0x278>
80001e44:	01470733          	add	a4,a4,s4
80001e48:	41870c33          	sub	s8,a4,s8
80001e4c:	000b8593          	mv	a1,s7
80001e50:	000c0513          	mv	a0,s8
80001e54:	5c5000ef          	jal	ra,80002c18 <__hidden___udivsi3>
80001e58:	000b0593          	mv	a1,s6
80001e5c:	591000ef          	jal	ra,80002bec <__mulsi3>
80001e60:	00050b13          	mv	s6,a0
80001e64:	000b8593          	mv	a1,s7
80001e68:	000c0513          	mv	a0,s8
80001e6c:	5f5000ef          	jal	ra,80002c60 <__umodsi3>
80001e70:	010a9793          	slli	a5,s5,0x10
80001e74:	01051513          	slli	a0,a0,0x10
80001e78:	0107d793          	srli	a5,a5,0x10
80001e7c:	00a7e7b3          	or	a5,a5,a0
80001e80:	0167fa63          	bgeu	a5,s6,80001e94 <__moddi3+0x2c4>
80001e84:	00fa07b3          	add	a5,s4,a5
80001e88:	0147e663          	bltu	a5,s4,80001e94 <__moddi3+0x2c4>
80001e8c:	0167f463          	bgeu	a5,s6,80001e94 <__moddi3+0x2c4>
80001e90:	014787b3          	add	a5,a5,s4
80001e94:	41678933          	sub	s2,a5,s6
80001e98:	010a5b13          	srli	s6,s4,0x10
80001e9c:	000b0593          	mv	a1,s6
80001ea0:	010a1b93          	slli	s7,s4,0x10
80001ea4:	00090513          	mv	a0,s2
80001ea8:	571000ef          	jal	ra,80002c18 <__hidden___udivsi3>
80001eac:	010bdb93          	srli	s7,s7,0x10
80001eb0:	000b8593          	mv	a1,s7
80001eb4:	539000ef          	jal	ra,80002bec <__mulsi3>
80001eb8:	00050a93          	mv	s5,a0
80001ebc:	000b0593          	mv	a1,s6
80001ec0:	00090513          	mv	a0,s2
80001ec4:	59d000ef          	jal	ra,80002c60 <__umodsi3>
80001ec8:	01051513          	slli	a0,a0,0x10
80001ecc:	01045793          	srli	a5,s0,0x10
80001ed0:	00a7e7b3          	or	a5,a5,a0
80001ed4:	0157fa63          	bgeu	a5,s5,80001ee8 <__moddi3+0x318>
80001ed8:	00fa07b3          	add	a5,s4,a5
80001edc:	0147e663          	bltu	a5,s4,80001ee8 <__moddi3+0x318>
80001ee0:	0157f463          	bgeu	a5,s5,80001ee8 <__moddi3+0x318>
80001ee4:	014787b3          	add	a5,a5,s4
80001ee8:	41578933          	sub	s2,a5,s5
80001eec:	000b0593          	mv	a1,s6
80001ef0:	00090513          	mv	a0,s2
80001ef4:	525000ef          	jal	ra,80002c18 <__hidden___udivsi3>
80001ef8:	000b8593          	mv	a1,s7
80001efc:	4f1000ef          	jal	ra,80002bec <__mulsi3>
80001f00:	00050a93          	mv	s5,a0
80001f04:	000b0593          	mv	a1,s6
80001f08:	e01ff06f          	j	80001d08 <__moddi3+0x138>
80001f0c:	010006b7          	lui	a3,0x1000
80001f10:	01000713          	li	a4,16
80001f14:	ead666e3          	bltu	a2,a3,80001dc0 <__moddi3+0x1f0>
80001f18:	01800713          	li	a4,24
80001f1c:	ea5ff06f          	j	80001dc0 <__moddi3+0x1f0>
80001f20:	e2d5e0e3          	bltu	a1,a3,80001d40 <__moddi3+0x170>
80001f24:	000107b7          	lui	a5,0x10
80001f28:	04f6fe63          	bgeu	a3,a5,80001f84 <__moddi3+0x3b4>
80001f2c:	1006b793          	sltiu	a5,a3,256
80001f30:	0017c793          	xori	a5,a5,1
80001f34:	00379793          	slli	a5,a5,0x3
80001f38:	80003737          	lui	a4,0x80003
80001f3c:	00f6d833          	srl	a6,a3,a5
80001f40:	f1870713          	addi	a4,a4,-232 # 80002f18 <__global_pointer$+0xffffe97c>
80001f44:	01070733          	add	a4,a4,a6
80001f48:	00074a83          	lbu	s5,0(a4)
80001f4c:	00fa8ab3          	add	s5,s5,a5
80001f50:	02000793          	li	a5,32
80001f54:	415789b3          	sub	s3,a5,s5
80001f58:	05579063          	bne	a5,s5,80001f98 <__moddi3+0x3c8>
80001f5c:	00b6e463          	bltu	a3,a1,80001f64 <__moddi3+0x394>
80001f60:	00c56c63          	bltu	a0,a2,80001f78 <__moddi3+0x3a8>
80001f64:	40c50933          	sub	s2,a0,a2
80001f68:	40d586b3          	sub	a3,a1,a3
80001f6c:	012535b3          	sltu	a1,a0,s2
80001f70:	00090413          	mv	s0,s2
80001f74:	40b68b33          	sub	s6,a3,a1
80001f78:	00040513          	mv	a0,s0
80001f7c:	000b0593          	mv	a1,s6
80001f80:	dc1ff06f          	j	80001d40 <__moddi3+0x170>
80001f84:	01000737          	lui	a4,0x1000
80001f88:	01000793          	li	a5,16
80001f8c:	fae6e6e3          	bltu	a3,a4,80001f38 <__moddi3+0x368>
80001f90:	01800793          	li	a5,24
80001f94:	fa5ff06f          	j	80001f38 <__moddi3+0x368>
80001f98:	013696b3          	sll	a3,a3,s3
80001f9c:	01565bb3          	srl	s7,a2,s5
80001fa0:	00dbebb3          	or	s7,s7,a3
80001fa4:	0155db33          	srl	s6,a1,s5
80001fa8:	01555433          	srl	s0,a0,s5
80001fac:	013595b3          	sll	a1,a1,s3
80001fb0:	010bdc13          	srli	s8,s7,0x10
80001fb4:	00b46433          	or	s0,s0,a1
80001fb8:	01351a33          	sll	s4,a0,s3
80001fbc:	000c0593          	mv	a1,s8
80001fc0:	000b0513          	mv	a0,s6
80001fc4:	010b9c93          	slli	s9,s7,0x10
80001fc8:	01361933          	sll	s2,a2,s3
80001fcc:	010cdc93          	srli	s9,s9,0x10
80001fd0:	449000ef          	jal	ra,80002c18 <__hidden___udivsi3>
80001fd4:	00050593          	mv	a1,a0
80001fd8:	00050d93          	mv	s11,a0
80001fdc:	000c8513          	mv	a0,s9
80001fe0:	40d000ef          	jal	ra,80002bec <__mulsi3>
80001fe4:	00050d13          	mv	s10,a0
80001fe8:	000c0593          	mv	a1,s8
80001fec:	000b0513          	mv	a0,s6
80001ff0:	471000ef          	jal	ra,80002c60 <__umodsi3>
80001ff4:	01051513          	slli	a0,a0,0x10
80001ff8:	01045793          	srli	a5,s0,0x10
80001ffc:	00a7e7b3          	or	a5,a5,a0
80002000:	000d8b13          	mv	s6,s11
80002004:	01a7fe63          	bgeu	a5,s10,80002020 <__moddi3+0x450>
80002008:	00fb87b3          	add	a5,s7,a5
8000200c:	fffd8b13          	addi	s6,s11,-1
80002010:	0177e863          	bltu	a5,s7,80002020 <__moddi3+0x450>
80002014:	01a7f663          	bgeu	a5,s10,80002020 <__moddi3+0x450>
80002018:	ffed8b13          	addi	s6,s11,-2
8000201c:	017787b3          	add	a5,a5,s7
80002020:	41a78d33          	sub	s10,a5,s10
80002024:	000c0593          	mv	a1,s8
80002028:	000d0513          	mv	a0,s10
8000202c:	3ed000ef          	jal	ra,80002c18 <__hidden___udivsi3>
80002030:	00050593          	mv	a1,a0
80002034:	00050d93          	mv	s11,a0
80002038:	000c8513          	mv	a0,s9
8000203c:	3b1000ef          	jal	ra,80002bec <__mulsi3>
80002040:	000c0593          	mv	a1,s8
80002044:	00050c93          	mv	s9,a0
80002048:	000d0513          	mv	a0,s10
8000204c:	415000ef          	jal	ra,80002c60 <__umodsi3>
80002050:	01041593          	slli	a1,s0,0x10
80002054:	01051513          	slli	a0,a0,0x10
80002058:	0105d593          	srli	a1,a1,0x10
8000205c:	00a5e5b3          	or	a1,a1,a0
80002060:	000d8713          	mv	a4,s11
80002064:	0195fe63          	bgeu	a1,s9,80002080 <__moddi3+0x4b0>
80002068:	00bb85b3          	add	a1,s7,a1
8000206c:	fffd8713          	addi	a4,s11,-1
80002070:	0175e863          	bltu	a1,s7,80002080 <__moddi3+0x4b0>
80002074:	0195f663          	bgeu	a1,s9,80002080 <__moddi3+0x4b0>
80002078:	ffed8713          	addi	a4,s11,-2
8000207c:	017585b3          	add	a1,a1,s7
80002080:	00010337          	lui	t1,0x10
80002084:	010b1b13          	slli	s6,s6,0x10
80002088:	00eb6b33          	or	s6,s6,a4
8000208c:	fff30713          	addi	a4,t1,-1 # ffff <buflen.1+0xffbf>
80002090:	00eb7e33          	and	t3,s6,a4
80002094:	00e97733          	and	a4,s2,a4
80002098:	419587b3          	sub	a5,a1,s9
8000209c:	010b5b13          	srli	s6,s6,0x10
800020a0:	01095893          	srli	a7,s2,0x10
800020a4:	000e0513          	mv	a0,t3
800020a8:	00070593          	mv	a1,a4
800020ac:	341000ef          	jal	ra,80002bec <__mulsi3>
800020b0:	00050813          	mv	a6,a0
800020b4:	00088593          	mv	a1,a7
800020b8:	000e0513          	mv	a0,t3
800020bc:	331000ef          	jal	ra,80002bec <__mulsi3>
800020c0:	00050413          	mv	s0,a0
800020c4:	00070593          	mv	a1,a4
800020c8:	000b0513          	mv	a0,s6
800020cc:	321000ef          	jal	ra,80002bec <__mulsi3>
800020d0:	00050713          	mv	a4,a0
800020d4:	00088593          	mv	a1,a7
800020d8:	000b0513          	mv	a0,s6
800020dc:	311000ef          	jal	ra,80002bec <__mulsi3>
800020e0:	00e40433          	add	s0,s0,a4
800020e4:	01085693          	srli	a3,a6,0x10
800020e8:	00d40433          	add	s0,s0,a3
800020ec:	00e47463          	bgeu	s0,a4,800020f4 <__moddi3+0x524>
800020f0:	00650533          	add	a0,a0,t1
800020f4:	000106b7          	lui	a3,0x10
800020f8:	fff68693          	addi	a3,a3,-1 # ffff <buflen.1+0xffbf>
800020fc:	01045713          	srli	a4,s0,0x10
80002100:	00d47433          	and	s0,s0,a3
80002104:	01041413          	slli	s0,s0,0x10
80002108:	00d87833          	and	a6,a6,a3
8000210c:	00a70733          	add	a4,a4,a0
80002110:	01040433          	add	s0,s0,a6
80002114:	00e7e663          	bltu	a5,a4,80002120 <__moddi3+0x550>
80002118:	00e79e63          	bne	a5,a4,80002134 <__moddi3+0x564>
8000211c:	008a7c63          	bgeu	s4,s0,80002134 <__moddi3+0x564>
80002120:	41240933          	sub	s2,s0,s2
80002124:	012436b3          	sltu	a3,s0,s2
80002128:	017686b3          	add	a3,a3,s7
8000212c:	00090413          	mv	s0,s2
80002130:	40d70733          	sub	a4,a4,a3
80002134:	408a0433          	sub	s0,s4,s0
80002138:	008a3a33          	sltu	s4,s4,s0
8000213c:	40e785b3          	sub	a1,a5,a4
80002140:	414585b3          	sub	a1,a1,s4
80002144:	01559ab3          	sll	s5,a1,s5
80002148:	01345433          	srl	s0,s0,s3
8000214c:	008ae533          	or	a0,s5,s0
80002150:	0135d5b3          	srl	a1,a1,s3
80002154:	bedff06f          	j	80001d40 <__moddi3+0x170>

80002158 <__udivdi3>:
80002158:	fd010113          	addi	sp,sp,-48
8000215c:	01412c23          	sw	s4,24(sp)
80002160:	02112623          	sw	ra,44(sp)
80002164:	02812423          	sw	s0,40(sp)
80002168:	02912223          	sw	s1,36(sp)
8000216c:	03212023          	sw	s2,32(sp)
80002170:	01312e23          	sw	s3,28(sp)
80002174:	01512a23          	sw	s5,20(sp)
80002178:	01612823          	sw	s6,16(sp)
8000217c:	01712623          	sw	s7,12(sp)
80002180:	01812423          	sw	s8,8(sp)
80002184:	01912223          	sw	s9,4(sp)
80002188:	00050a13          	mv	s4,a0
8000218c:	38069463          	bnez	a3,80002514 <__udivdi3+0x3bc>
80002190:	800037b7          	lui	a5,0x80003
80002194:	00060993          	mv	s3,a2
80002198:	00050493          	mv	s1,a0
8000219c:	f1878793          	addi	a5,a5,-232 # 80002f18 <__global_pointer$+0xffffe97c>
800021a0:	12c5f863          	bgeu	a1,a2,800022d0 <__udivdi3+0x178>
800021a4:	00010737          	lui	a4,0x10
800021a8:	00058913          	mv	s2,a1
800021ac:	10e67863          	bgeu	a2,a4,800022bc <__udivdi3+0x164>
800021b0:	10063713          	sltiu	a4,a2,256
800021b4:	00174713          	xori	a4,a4,1
800021b8:	00371713          	slli	a4,a4,0x3
800021bc:	00e656b3          	srl	a3,a2,a4
800021c0:	00d787b3          	add	a5,a5,a3
800021c4:	0007c783          	lbu	a5,0(a5)
800021c8:	02000693          	li	a3,32
800021cc:	00e787b3          	add	a5,a5,a4
800021d0:	40f68733          	sub	a4,a3,a5
800021d4:	00f68c63          	beq	a3,a5,800021ec <__udivdi3+0x94>
800021d8:	00e59933          	sll	s2,a1,a4
800021dc:	00fa57b3          	srl	a5,s4,a5
800021e0:	00e619b3          	sll	s3,a2,a4
800021e4:	0127e933          	or	s2,a5,s2
800021e8:	00ea14b3          	sll	s1,s4,a4
800021ec:	0109da93          	srli	s5,s3,0x10
800021f0:	000a8593          	mv	a1,s5
800021f4:	00090513          	mv	a0,s2
800021f8:	01099b13          	slli	s6,s3,0x10
800021fc:	21d000ef          	jal	ra,80002c18 <__hidden___udivsi3>
80002200:	010b5b13          	srli	s6,s6,0x10
80002204:	00050593          	mv	a1,a0
80002208:	00050a13          	mv	s4,a0
8000220c:	000b0513          	mv	a0,s6
80002210:	1dd000ef          	jal	ra,80002bec <__mulsi3>
80002214:	00050413          	mv	s0,a0
80002218:	000a8593          	mv	a1,s5
8000221c:	00090513          	mv	a0,s2
80002220:	241000ef          	jal	ra,80002c60 <__umodsi3>
80002224:	01051513          	slli	a0,a0,0x10
80002228:	0104d713          	srli	a4,s1,0x10
8000222c:	00a76733          	or	a4,a4,a0
80002230:	000a0913          	mv	s2,s4
80002234:	00877e63          	bgeu	a4,s0,80002250 <__udivdi3+0xf8>
80002238:	00e98733          	add	a4,s3,a4
8000223c:	fffa0913          	addi	s2,s4,-1
80002240:	01376863          	bltu	a4,s3,80002250 <__udivdi3+0xf8>
80002244:	00877663          	bgeu	a4,s0,80002250 <__udivdi3+0xf8>
80002248:	ffea0913          	addi	s2,s4,-2
8000224c:	01370733          	add	a4,a4,s3
80002250:	40870433          	sub	s0,a4,s0
80002254:	000a8593          	mv	a1,s5
80002258:	00040513          	mv	a0,s0
8000225c:	1bd000ef          	jal	ra,80002c18 <__hidden___udivsi3>
80002260:	00050593          	mv	a1,a0
80002264:	00050a13          	mv	s4,a0
80002268:	000b0513          	mv	a0,s6
8000226c:	181000ef          	jal	ra,80002bec <__mulsi3>
80002270:	00050b13          	mv	s6,a0
80002274:	000a8593          	mv	a1,s5
80002278:	00040513          	mv	a0,s0
8000227c:	1e5000ef          	jal	ra,80002c60 <__umodsi3>
80002280:	01049493          	slli	s1,s1,0x10
80002284:	01051513          	slli	a0,a0,0x10
80002288:	0104d493          	srli	s1,s1,0x10
8000228c:	00a4e4b3          	or	s1,s1,a0
80002290:	000a0713          	mv	a4,s4
80002294:	0164fc63          	bgeu	s1,s6,800022ac <__udivdi3+0x154>
80002298:	009984b3          	add	s1,s3,s1
8000229c:	fffa0713          	addi	a4,s4,-1
800022a0:	0134e663          	bltu	s1,s3,800022ac <__udivdi3+0x154>
800022a4:	0164f463          	bgeu	s1,s6,800022ac <__udivdi3+0x154>
800022a8:	ffea0713          	addi	a4,s4,-2
800022ac:	01091793          	slli	a5,s2,0x10
800022b0:	00e7e7b3          	or	a5,a5,a4
800022b4:	00000913          	li	s2,0
800022b8:	1200006f          	j	800023d8 <__udivdi3+0x280>
800022bc:	010006b7          	lui	a3,0x1000
800022c0:	01000713          	li	a4,16
800022c4:	eed66ce3          	bltu	a2,a3,800021bc <__udivdi3+0x64>
800022c8:	01800713          	li	a4,24
800022cc:	ef1ff06f          	j	800021bc <__udivdi3+0x64>
800022d0:	00000713          	li	a4,0
800022d4:	00060c63          	beqz	a2,800022ec <__udivdi3+0x194>
800022d8:	00010737          	lui	a4,0x10
800022dc:	12e67c63          	bgeu	a2,a4,80002414 <__udivdi3+0x2bc>
800022e0:	10063713          	sltiu	a4,a2,256
800022e4:	00174713          	xori	a4,a4,1
800022e8:	00371713          	slli	a4,a4,0x3
800022ec:	00e656b3          	srl	a3,a2,a4
800022f0:	00d787b3          	add	a5,a5,a3
800022f4:	0007c783          	lbu	a5,0(a5)
800022f8:	02000693          	li	a3,32
800022fc:	00e787b3          	add	a5,a5,a4
80002300:	40f68733          	sub	a4,a3,a5
80002304:	12f69263          	bne	a3,a5,80002428 <__udivdi3+0x2d0>
80002308:	40c58a33          	sub	s4,a1,a2
8000230c:	00100913          	li	s2,1
80002310:	0109db13          	srli	s6,s3,0x10
80002314:	000b0593          	mv	a1,s6
80002318:	000a0513          	mv	a0,s4
8000231c:	01099b93          	slli	s7,s3,0x10
80002320:	0f9000ef          	jal	ra,80002c18 <__hidden___udivsi3>
80002324:	010bdb93          	srli	s7,s7,0x10
80002328:	00050593          	mv	a1,a0
8000232c:	00050c13          	mv	s8,a0
80002330:	000b8513          	mv	a0,s7
80002334:	0b9000ef          	jal	ra,80002bec <__mulsi3>
80002338:	00050a93          	mv	s5,a0
8000233c:	000b0593          	mv	a1,s6
80002340:	000a0513          	mv	a0,s4
80002344:	11d000ef          	jal	ra,80002c60 <__umodsi3>
80002348:	01051513          	slli	a0,a0,0x10
8000234c:	0104d713          	srli	a4,s1,0x10
80002350:	00a76733          	or	a4,a4,a0
80002354:	000c0a13          	mv	s4,s8
80002358:	01577e63          	bgeu	a4,s5,80002374 <__udivdi3+0x21c>
8000235c:	00e98733          	add	a4,s3,a4
80002360:	fffc0a13          	addi	s4,s8,-1
80002364:	01376863          	bltu	a4,s3,80002374 <__udivdi3+0x21c>
80002368:	01577663          	bgeu	a4,s5,80002374 <__udivdi3+0x21c>
8000236c:	ffec0a13          	addi	s4,s8,-2
80002370:	01370733          	add	a4,a4,s3
80002374:	41570433          	sub	s0,a4,s5
80002378:	000b0593          	mv	a1,s6
8000237c:	00040513          	mv	a0,s0
80002380:	099000ef          	jal	ra,80002c18 <__hidden___udivsi3>
80002384:	00050593          	mv	a1,a0
80002388:	00050a93          	mv	s5,a0
8000238c:	000b8513          	mv	a0,s7
80002390:	05d000ef          	jal	ra,80002bec <__mulsi3>
80002394:	00050b93          	mv	s7,a0
80002398:	000b0593          	mv	a1,s6
8000239c:	00040513          	mv	a0,s0
800023a0:	0c1000ef          	jal	ra,80002c60 <__umodsi3>
800023a4:	01049493          	slli	s1,s1,0x10
800023a8:	01051513          	slli	a0,a0,0x10
800023ac:	0104d493          	srli	s1,s1,0x10
800023b0:	00a4e4b3          	or	s1,s1,a0
800023b4:	000a8713          	mv	a4,s5
800023b8:	0174fc63          	bgeu	s1,s7,800023d0 <__udivdi3+0x278>
800023bc:	009984b3          	add	s1,s3,s1
800023c0:	fffa8713          	addi	a4,s5,-1
800023c4:	0134e663          	bltu	s1,s3,800023d0 <__udivdi3+0x278>
800023c8:	0174f463          	bgeu	s1,s7,800023d0 <__udivdi3+0x278>
800023cc:	ffea8713          	addi	a4,s5,-2
800023d0:	010a1793          	slli	a5,s4,0x10
800023d4:	00e7e7b3          	or	a5,a5,a4
800023d8:	02c12083          	lw	ra,44(sp)
800023dc:	02812403          	lw	s0,40(sp)
800023e0:	02412483          	lw	s1,36(sp)
800023e4:	01c12983          	lw	s3,28(sp)
800023e8:	01812a03          	lw	s4,24(sp)
800023ec:	01412a83          	lw	s5,20(sp)
800023f0:	01012b03          	lw	s6,16(sp)
800023f4:	00c12b83          	lw	s7,12(sp)
800023f8:	00812c03          	lw	s8,8(sp)
800023fc:	00412c83          	lw	s9,4(sp)
80002400:	00090593          	mv	a1,s2
80002404:	00078513          	mv	a0,a5
80002408:	02012903          	lw	s2,32(sp)
8000240c:	03010113          	addi	sp,sp,48
80002410:	00008067          	ret
80002414:	010006b7          	lui	a3,0x1000
80002418:	01000713          	li	a4,16
8000241c:	ecd668e3          	bltu	a2,a3,800022ec <__udivdi3+0x194>
80002420:	01800713          	li	a4,24
80002424:	ec9ff06f          	j	800022ec <__udivdi3+0x194>
80002428:	00e619b3          	sll	s3,a2,a4
8000242c:	00f5d933          	srl	s2,a1,a5
80002430:	0109db93          	srli	s7,s3,0x10
80002434:	00e595b3          	sll	a1,a1,a4
80002438:	00fa57b3          	srl	a5,s4,a5
8000243c:	00b7eab3          	or	s5,a5,a1
80002440:	00ea14b3          	sll	s1,s4,a4
80002444:	000b8593          	mv	a1,s7
80002448:	00090513          	mv	a0,s2
8000244c:	01099a13          	slli	s4,s3,0x10
80002450:	7c8000ef          	jal	ra,80002c18 <__hidden___udivsi3>
80002454:	010a5a13          	srli	s4,s4,0x10
80002458:	00050593          	mv	a1,a0
8000245c:	00050b13          	mv	s6,a0
80002460:	000a0513          	mv	a0,s4
80002464:	788000ef          	jal	ra,80002bec <__mulsi3>
80002468:	00050413          	mv	s0,a0
8000246c:	000b8593          	mv	a1,s7
80002470:	00090513          	mv	a0,s2
80002474:	7ec000ef          	jal	ra,80002c60 <__umodsi3>
80002478:	01051513          	slli	a0,a0,0x10
8000247c:	010ad713          	srli	a4,s5,0x10
80002480:	00a76733          	or	a4,a4,a0
80002484:	000b0913          	mv	s2,s6
80002488:	00877e63          	bgeu	a4,s0,800024a4 <__udivdi3+0x34c>
8000248c:	00e98733          	add	a4,s3,a4
80002490:	fffb0913          	addi	s2,s6,-1
80002494:	01376863          	bltu	a4,s3,800024a4 <__udivdi3+0x34c>
80002498:	00877663          	bgeu	a4,s0,800024a4 <__udivdi3+0x34c>
8000249c:	ffeb0913          	addi	s2,s6,-2
800024a0:	01370733          	add	a4,a4,s3
800024a4:	40870433          	sub	s0,a4,s0
800024a8:	000b8593          	mv	a1,s7
800024ac:	00040513          	mv	a0,s0
800024b0:	768000ef          	jal	ra,80002c18 <__hidden___udivsi3>
800024b4:	00050593          	mv	a1,a0
800024b8:	00050b13          	mv	s6,a0
800024bc:	000a0513          	mv	a0,s4
800024c0:	72c000ef          	jal	ra,80002bec <__mulsi3>
800024c4:	00050a13          	mv	s4,a0
800024c8:	000b8593          	mv	a1,s7
800024cc:	00040513          	mv	a0,s0
800024d0:	790000ef          	jal	ra,80002c60 <__umodsi3>
800024d4:	010a9793          	slli	a5,s5,0x10
800024d8:	01051513          	slli	a0,a0,0x10
800024dc:	0107d793          	srli	a5,a5,0x10
800024e0:	00a7e7b3          	or	a5,a5,a0
800024e4:	000b0713          	mv	a4,s6
800024e8:	0147fe63          	bgeu	a5,s4,80002504 <__udivdi3+0x3ac>
800024ec:	00f987b3          	add	a5,s3,a5
800024f0:	fffb0713          	addi	a4,s6,-1
800024f4:	0137e863          	bltu	a5,s3,80002504 <__udivdi3+0x3ac>
800024f8:	0147f663          	bgeu	a5,s4,80002504 <__udivdi3+0x3ac>
800024fc:	ffeb0713          	addi	a4,s6,-2
80002500:	013787b3          	add	a5,a5,s3
80002504:	01091913          	slli	s2,s2,0x10
80002508:	41478a33          	sub	s4,a5,s4
8000250c:	00e96933          	or	s2,s2,a4
80002510:	e01ff06f          	j	80002310 <__udivdi3+0x1b8>
80002514:	1ed5ee63          	bltu	a1,a3,80002710 <__udivdi3+0x5b8>
80002518:	000107b7          	lui	a5,0x10
8000251c:	04f6f463          	bgeu	a3,a5,80002564 <__udivdi3+0x40c>
80002520:	1006b713          	sltiu	a4,a3,256
80002524:	00174713          	xori	a4,a4,1
80002528:	00371713          	slli	a4,a4,0x3
8000252c:	800037b7          	lui	a5,0x80003
80002530:	00e6d533          	srl	a0,a3,a4
80002534:	f1878793          	addi	a5,a5,-232 # 80002f18 <__global_pointer$+0xffffe97c>
80002538:	00a787b3          	add	a5,a5,a0
8000253c:	0007c803          	lbu	a6,0(a5)
80002540:	02000793          	li	a5,32
80002544:	00e80833          	add	a6,a6,a4
80002548:	41078933          	sub	s2,a5,a6
8000254c:	03079663          	bne	a5,a6,80002578 <__udivdi3+0x420>
80002550:	00100793          	li	a5,1
80002554:	e8b6e2e3          	bltu	a3,a1,800023d8 <__udivdi3+0x280>
80002558:	00ca37b3          	sltu	a5,s4,a2
8000255c:	0017c793          	xori	a5,a5,1
80002560:	e79ff06f          	j	800023d8 <__udivdi3+0x280>
80002564:	010007b7          	lui	a5,0x1000
80002568:	01000713          	li	a4,16
8000256c:	fcf6e0e3          	bltu	a3,a5,8000252c <__udivdi3+0x3d4>
80002570:	01800713          	li	a4,24
80002574:	fb9ff06f          	j	8000252c <__udivdi3+0x3d4>
80002578:	012696b3          	sll	a3,a3,s2
8000257c:	01065b33          	srl	s6,a2,a6
80002580:	00db6b33          	or	s6,s6,a3
80002584:	0105d4b3          	srl	s1,a1,a6
80002588:	010b5c13          	srli	s8,s6,0x10
8000258c:	010a5833          	srl	a6,s4,a6
80002590:	012595b3          	sll	a1,a1,s2
80002594:	00b869b3          	or	s3,a6,a1
80002598:	00048513          	mv	a0,s1
8000259c:	000c0593          	mv	a1,s8
800025a0:	010b1b93          	slli	s7,s6,0x10
800025a4:	01261433          	sll	s0,a2,s2
800025a8:	010bdb93          	srli	s7,s7,0x10
800025ac:	66c000ef          	jal	ra,80002c18 <__hidden___udivsi3>
800025b0:	00050593          	mv	a1,a0
800025b4:	00050c93          	mv	s9,a0
800025b8:	000b8513          	mv	a0,s7
800025bc:	630000ef          	jal	ra,80002bec <__mulsi3>
800025c0:	00050a93          	mv	s5,a0
800025c4:	000c0593          	mv	a1,s8
800025c8:	00048513          	mv	a0,s1
800025cc:	694000ef          	jal	ra,80002c60 <__umodsi3>
800025d0:	01051513          	slli	a0,a0,0x10
800025d4:	0109d693          	srli	a3,s3,0x10
800025d8:	00a6e6b3          	or	a3,a3,a0
800025dc:	000c8493          	mv	s1,s9
800025e0:	0156fe63          	bgeu	a3,s5,800025fc <__udivdi3+0x4a4>
800025e4:	00db06b3          	add	a3,s6,a3
800025e8:	fffc8493          	addi	s1,s9,-1
800025ec:	0166e863          	bltu	a3,s6,800025fc <__udivdi3+0x4a4>
800025f0:	0156f663          	bgeu	a3,s5,800025fc <__udivdi3+0x4a4>
800025f4:	ffec8493          	addi	s1,s9,-2
800025f8:	016686b3          	add	a3,a3,s6
800025fc:	41568ab3          	sub	s5,a3,s5
80002600:	000c0593          	mv	a1,s8
80002604:	000a8513          	mv	a0,s5
80002608:	610000ef          	jal	ra,80002c18 <__hidden___udivsi3>
8000260c:	00050593          	mv	a1,a0
80002610:	00050c93          	mv	s9,a0
80002614:	000b8513          	mv	a0,s7
80002618:	5d4000ef          	jal	ra,80002bec <__mulsi3>
8000261c:	00050b93          	mv	s7,a0
80002620:	000c0593          	mv	a1,s8
80002624:	000a8513          	mv	a0,s5
80002628:	638000ef          	jal	ra,80002c60 <__umodsi3>
8000262c:	01099713          	slli	a4,s3,0x10
80002630:	01051513          	slli	a0,a0,0x10
80002634:	01075713          	srli	a4,a4,0x10
80002638:	00a76733          	or	a4,a4,a0
8000263c:	000c8693          	mv	a3,s9
80002640:	01777e63          	bgeu	a4,s7,8000265c <__udivdi3+0x504>
80002644:	00eb0733          	add	a4,s6,a4
80002648:	fffc8693          	addi	a3,s9,-1
8000264c:	01676863          	bltu	a4,s6,8000265c <__udivdi3+0x504>
80002650:	01777663          	bgeu	a4,s7,8000265c <__udivdi3+0x504>
80002654:	ffec8693          	addi	a3,s9,-2
80002658:	01670733          	add	a4,a4,s6
8000265c:	01049793          	slli	a5,s1,0x10
80002660:	00010e37          	lui	t3,0x10
80002664:	00d7e7b3          	or	a5,a5,a3
80002668:	fffe0313          	addi	t1,t3,-1 # ffff <buflen.1+0xffbf>
8000266c:	0067f8b3          	and	a7,a5,t1
80002670:	00647333          	and	t1,s0,t1
80002674:	41770733          	sub	a4,a4,s7
80002678:	0107de93          	srli	t4,a5,0x10
8000267c:	01045413          	srli	s0,s0,0x10
80002680:	00088513          	mv	a0,a7
80002684:	00030593          	mv	a1,t1
80002688:	564000ef          	jal	ra,80002bec <__mulsi3>
8000268c:	00050813          	mv	a6,a0
80002690:	00040593          	mv	a1,s0
80002694:	00088513          	mv	a0,a7
80002698:	554000ef          	jal	ra,80002bec <__mulsi3>
8000269c:	00050893          	mv	a7,a0
800026a0:	00030593          	mv	a1,t1
800026a4:	000e8513          	mv	a0,t4
800026a8:	544000ef          	jal	ra,80002bec <__mulsi3>
800026ac:	00050313          	mv	t1,a0
800026b0:	00040593          	mv	a1,s0
800026b4:	000e8513          	mv	a0,t4
800026b8:	534000ef          	jal	ra,80002bec <__mulsi3>
800026bc:	01085693          	srli	a3,a6,0x10
800026c0:	006888b3          	add	a7,a7,t1
800026c4:	011686b3          	add	a3,a3,a7
800026c8:	00050613          	mv	a2,a0
800026cc:	0066f463          	bgeu	a3,t1,800026d4 <__udivdi3+0x57c>
800026d0:	01c50633          	add	a2,a0,t3
800026d4:	0106d593          	srli	a1,a3,0x10
800026d8:	00c58633          	add	a2,a1,a2
800026dc:	02c76663          	bltu	a4,a2,80002708 <__udivdi3+0x5b0>
800026e0:	bcc71ae3          	bne	a4,a2,800022b4 <__udivdi3+0x15c>
800026e4:	00010637          	lui	a2,0x10
800026e8:	fff60613          	addi	a2,a2,-1 # ffff <buflen.1+0xffbf>
800026ec:	00c6f6b3          	and	a3,a3,a2
800026f0:	01069693          	slli	a3,a3,0x10
800026f4:	00c87833          	and	a6,a6,a2
800026f8:	012a1733          	sll	a4,s4,s2
800026fc:	010686b3          	add	a3,a3,a6
80002700:	00000913          	li	s2,0
80002704:	ccd77ae3          	bgeu	a4,a3,800023d8 <__udivdi3+0x280>
80002708:	fff78793          	addi	a5,a5,-1 # ffffff <buflen.1+0xffffbf>
8000270c:	ba9ff06f          	j	800022b4 <__udivdi3+0x15c>
80002710:	00000913          	li	s2,0
80002714:	00000793          	li	a5,0
80002718:	cc1ff06f          	j	800023d8 <__udivdi3+0x280>

8000271c <__umoddi3>:
8000271c:	fd010113          	addi	sp,sp,-48
80002720:	02812423          	sw	s0,40(sp)
80002724:	02912223          	sw	s1,36(sp)
80002728:	02112623          	sw	ra,44(sp)
8000272c:	03212023          	sw	s2,32(sp)
80002730:	01312e23          	sw	s3,28(sp)
80002734:	01412c23          	sw	s4,24(sp)
80002738:	01512a23          	sw	s5,20(sp)
8000273c:	01612823          	sw	s6,16(sp)
80002740:	01712623          	sw	s7,12(sp)
80002744:	01812423          	sw	s8,8(sp)
80002748:	01912223          	sw	s9,4(sp)
8000274c:	01a12023          	sw	s10,0(sp)
80002750:	00050413          	mv	s0,a0
80002754:	00058493          	mv	s1,a1
80002758:	24069c63          	bnez	a3,800029b0 <__umoddi3+0x294>
8000275c:	800037b7          	lui	a5,0x80003
80002760:	00060993          	mv	s3,a2
80002764:	f1878793          	addi	a5,a5,-232 # 80002f18 <__global_pointer$+0xffffe97c>
80002768:	12c5fe63          	bgeu	a1,a2,800028a4 <__umoddi3+0x188>
8000276c:	00010737          	lui	a4,0x10
80002770:	12e67063          	bgeu	a2,a4,80002890 <__umoddi3+0x174>
80002774:	10063713          	sltiu	a4,a2,256
80002778:	00174713          	xori	a4,a4,1
8000277c:	00371713          	slli	a4,a4,0x3
80002780:	00e656b3          	srl	a3,a2,a4
80002784:	00d787b3          	add	a5,a5,a3
80002788:	0007c783          	lbu	a5,0(a5)
8000278c:	00e787b3          	add	a5,a5,a4
80002790:	02000713          	li	a4,32
80002794:	40f70933          	sub	s2,a4,a5
80002798:	00f70c63          	beq	a4,a5,800027b0 <__umoddi3+0x94>
8000279c:	012594b3          	sll	s1,a1,s2
800027a0:	00f557b3          	srl	a5,a0,a5
800027a4:	012619b3          	sll	s3,a2,s2
800027a8:	0097e4b3          	or	s1,a5,s1
800027ac:	01251433          	sll	s0,a0,s2
800027b0:	0109da93          	srli	s5,s3,0x10
800027b4:	000a8593          	mv	a1,s5
800027b8:	01099b13          	slli	s6,s3,0x10
800027bc:	00048513          	mv	a0,s1
800027c0:	458000ef          	jal	ra,80002c18 <__hidden___udivsi3>
800027c4:	010b5b13          	srli	s6,s6,0x10
800027c8:	000b0593          	mv	a1,s6
800027cc:	420000ef          	jal	ra,80002bec <__mulsi3>
800027d0:	00050a13          	mv	s4,a0
800027d4:	000a8593          	mv	a1,s5
800027d8:	00048513          	mv	a0,s1
800027dc:	484000ef          	jal	ra,80002c60 <__umodsi3>
800027e0:	01051513          	slli	a0,a0,0x10
800027e4:	01045793          	srli	a5,s0,0x10
800027e8:	00a7e7b3          	or	a5,a5,a0
800027ec:	0147fa63          	bgeu	a5,s4,80002800 <__umoddi3+0xe4>
800027f0:	00f987b3          	add	a5,s3,a5
800027f4:	0137e663          	bltu	a5,s3,80002800 <__umoddi3+0xe4>
800027f8:	0147f463          	bgeu	a5,s4,80002800 <__umoddi3+0xe4>
800027fc:	013787b3          	add	a5,a5,s3
80002800:	414784b3          	sub	s1,a5,s4
80002804:	000a8593          	mv	a1,s5
80002808:	00048513          	mv	a0,s1
8000280c:	40c000ef          	jal	ra,80002c18 <__hidden___udivsi3>
80002810:	000b0593          	mv	a1,s6
80002814:	3d8000ef          	jal	ra,80002bec <__mulsi3>
80002818:	00050a13          	mv	s4,a0
8000281c:	000a8593          	mv	a1,s5
80002820:	00048513          	mv	a0,s1
80002824:	43c000ef          	jal	ra,80002c60 <__umodsi3>
80002828:	01041413          	slli	s0,s0,0x10
8000282c:	01051513          	slli	a0,a0,0x10
80002830:	01045413          	srli	s0,s0,0x10
80002834:	00a46433          	or	s0,s0,a0
80002838:	01447a63          	bgeu	s0,s4,8000284c <__umoddi3+0x130>
8000283c:	00898433          	add	s0,s3,s0
80002840:	01346663          	bltu	s0,s3,8000284c <__umoddi3+0x130>
80002844:	01447463          	bgeu	s0,s4,8000284c <__umoddi3+0x130>
80002848:	01340433          	add	s0,s0,s3
8000284c:	41440433          	sub	s0,s0,s4
80002850:	01245533          	srl	a0,s0,s2
80002854:	00000593          	li	a1,0
80002858:	02c12083          	lw	ra,44(sp)
8000285c:	02812403          	lw	s0,40(sp)
80002860:	02412483          	lw	s1,36(sp)
80002864:	02012903          	lw	s2,32(sp)
80002868:	01c12983          	lw	s3,28(sp)
8000286c:	01812a03          	lw	s4,24(sp)
80002870:	01412a83          	lw	s5,20(sp)
80002874:	01012b03          	lw	s6,16(sp)
80002878:	00c12b83          	lw	s7,12(sp)
8000287c:	00812c03          	lw	s8,8(sp)
80002880:	00412c83          	lw	s9,4(sp)
80002884:	00012d03          	lw	s10,0(sp)
80002888:	03010113          	addi	sp,sp,48
8000288c:	00008067          	ret
80002890:	010006b7          	lui	a3,0x1000
80002894:	01000713          	li	a4,16
80002898:	eed664e3          	bltu	a2,a3,80002780 <__umoddi3+0x64>
8000289c:	01800713          	li	a4,24
800028a0:	ee1ff06f          	j	80002780 <__umoddi3+0x64>
800028a4:	00000713          	li	a4,0
800028a8:	00060c63          	beqz	a2,800028c0 <__umoddi3+0x1a4>
800028ac:	00010737          	lui	a4,0x10
800028b0:	0ee67663          	bgeu	a2,a4,8000299c <__umoddi3+0x280>
800028b4:	10063713          	sltiu	a4,a2,256
800028b8:	00174713          	xori	a4,a4,1
800028bc:	00371713          	slli	a4,a4,0x3
800028c0:	00e656b3          	srl	a3,a2,a4
800028c4:	00d787b3          	add	a5,a5,a3
800028c8:	0007c783          	lbu	a5,0(a5)
800028cc:	40c584b3          	sub	s1,a1,a2
800028d0:	00e787b3          	add	a5,a5,a4
800028d4:	02000713          	li	a4,32
800028d8:	40f70933          	sub	s2,a4,a5
800028dc:	ecf70ae3          	beq	a4,a5,800027b0 <__umoddi3+0x94>
800028e0:	012619b3          	sll	s3,a2,s2
800028e4:	00f5dbb3          	srl	s7,a1,a5
800028e8:	0109db13          	srli	s6,s3,0x10
800028ec:	00f557b3          	srl	a5,a0,a5
800028f0:	012595b3          	sll	a1,a1,s2
800028f4:	00b7ea33          	or	s4,a5,a1
800028f8:	01251433          	sll	s0,a0,s2
800028fc:	000b0593          	mv	a1,s6
80002900:	01099a93          	slli	s5,s3,0x10
80002904:	000b8513          	mv	a0,s7
80002908:	310000ef          	jal	ra,80002c18 <__hidden___udivsi3>
8000290c:	010ada93          	srli	s5,s5,0x10
80002910:	000a8593          	mv	a1,s5
80002914:	2d8000ef          	jal	ra,80002bec <__mulsi3>
80002918:	00050493          	mv	s1,a0
8000291c:	000b0593          	mv	a1,s6
80002920:	000b8513          	mv	a0,s7
80002924:	33c000ef          	jal	ra,80002c60 <__umodsi3>
80002928:	01051513          	slli	a0,a0,0x10
8000292c:	010a5713          	srli	a4,s4,0x10
80002930:	00a76733          	or	a4,a4,a0
80002934:	00977a63          	bgeu	a4,s1,80002948 <__umoddi3+0x22c>
80002938:	00e98733          	add	a4,s3,a4
8000293c:	01376663          	bltu	a4,s3,80002948 <__umoddi3+0x22c>
80002940:	00977463          	bgeu	a4,s1,80002948 <__umoddi3+0x22c>
80002944:	01370733          	add	a4,a4,s3
80002948:	409704b3          	sub	s1,a4,s1
8000294c:	000b0593          	mv	a1,s6
80002950:	00048513          	mv	a0,s1
80002954:	2c4000ef          	jal	ra,80002c18 <__hidden___udivsi3>
80002958:	000a8593          	mv	a1,s5
8000295c:	290000ef          	jal	ra,80002bec <__mulsi3>
80002960:	00050a93          	mv	s5,a0
80002964:	000b0593          	mv	a1,s6
80002968:	00048513          	mv	a0,s1
8000296c:	2f4000ef          	jal	ra,80002c60 <__umodsi3>
80002970:	010a1793          	slli	a5,s4,0x10
80002974:	01051513          	slli	a0,a0,0x10
80002978:	0107d793          	srli	a5,a5,0x10
8000297c:	00a7e7b3          	or	a5,a5,a0
80002980:	0157fa63          	bgeu	a5,s5,80002994 <__umoddi3+0x278>
80002984:	00f987b3          	add	a5,s3,a5
80002988:	0137e663          	bltu	a5,s3,80002994 <__umoddi3+0x278>
8000298c:	0157f463          	bgeu	a5,s5,80002994 <__umoddi3+0x278>
80002990:	013787b3          	add	a5,a5,s3
80002994:	415784b3          	sub	s1,a5,s5
80002998:	e19ff06f          	j	800027b0 <__umoddi3+0x94>
8000299c:	010006b7          	lui	a3,0x1000
800029a0:	01000713          	li	a4,16
800029a4:	f0d66ee3          	bltu	a2,a3,800028c0 <__umoddi3+0x1a4>
800029a8:	01800713          	li	a4,24
800029ac:	f15ff06f          	j	800028c0 <__umoddi3+0x1a4>
800029b0:	ead5e4e3          	bltu	a1,a3,80002858 <__umoddi3+0x13c>
800029b4:	000107b7          	lui	a5,0x10
800029b8:	04f6fe63          	bgeu	a3,a5,80002a14 <__umoddi3+0x2f8>
800029bc:	1006b793          	sltiu	a5,a3,256
800029c0:	0017c793          	xori	a5,a5,1
800029c4:	00379793          	slli	a5,a5,0x3
800029c8:	80003737          	lui	a4,0x80003
800029cc:	00f6d833          	srl	a6,a3,a5
800029d0:	f1870713          	addi	a4,a4,-232 # 80002f18 <__global_pointer$+0xffffe97c>
800029d4:	01070733          	add	a4,a4,a6
800029d8:	00074a83          	lbu	s5,0(a4)
800029dc:	00fa8ab3          	add	s5,s5,a5
800029e0:	02000793          	li	a5,32
800029e4:	41578a33          	sub	s4,a5,s5
800029e8:	05579063          	bne	a5,s5,80002a28 <__umoddi3+0x30c>
800029ec:	00b6e463          	bltu	a3,a1,800029f4 <__umoddi3+0x2d8>
800029f0:	00c56c63          	bltu	a0,a2,80002a08 <__umoddi3+0x2ec>
800029f4:	40c50933          	sub	s2,a0,a2
800029f8:	40d586b3          	sub	a3,a1,a3
800029fc:	012534b3          	sltu	s1,a0,s2
80002a00:	00090413          	mv	s0,s2
80002a04:	409684b3          	sub	s1,a3,s1
80002a08:	00040513          	mv	a0,s0
80002a0c:	00048593          	mv	a1,s1
80002a10:	e49ff06f          	j	80002858 <__umoddi3+0x13c>
80002a14:	01000737          	lui	a4,0x1000
80002a18:	01000793          	li	a5,16
80002a1c:	fae6e6e3          	bltu	a3,a4,800029c8 <__umoddi3+0x2ac>
80002a20:	01800793          	li	a5,24
80002a24:	fa5ff06f          	j	800029c8 <__umoddi3+0x2ac>
80002a28:	014696b3          	sll	a3,a3,s4
80002a2c:	01565bb3          	srl	s7,a2,s5
80002a30:	00dbebb3          	or	s7,s7,a3
80002a34:	0155d9b3          	srl	s3,a1,s5
80002a38:	01555433          	srl	s0,a0,s5
80002a3c:	014595b3          	sll	a1,a1,s4
80002a40:	010bd493          	srli	s1,s7,0x10
80002a44:	00b46433          	or	s0,s0,a1
80002a48:	01451b33          	sll	s6,a0,s4
80002a4c:	00048593          	mv	a1,s1
80002a50:	00098513          	mv	a0,s3
80002a54:	010b9c13          	slli	s8,s7,0x10
80002a58:	01461933          	sll	s2,a2,s4
80002a5c:	010c5c13          	srli	s8,s8,0x10
80002a60:	1b8000ef          	jal	ra,80002c18 <__hidden___udivsi3>
80002a64:	00050593          	mv	a1,a0
80002a68:	00050d13          	mv	s10,a0
80002a6c:	000c0513          	mv	a0,s8
80002a70:	17c000ef          	jal	ra,80002bec <__mulsi3>
80002a74:	00050c93          	mv	s9,a0
80002a78:	00048593          	mv	a1,s1
80002a7c:	00098513          	mv	a0,s3
80002a80:	1e0000ef          	jal	ra,80002c60 <__umodsi3>
80002a84:	01051513          	slli	a0,a0,0x10
80002a88:	01045793          	srli	a5,s0,0x10
80002a8c:	00a7e7b3          	or	a5,a5,a0
80002a90:	000d0993          	mv	s3,s10
80002a94:	0197fe63          	bgeu	a5,s9,80002ab0 <__umoddi3+0x394>
80002a98:	00fb87b3          	add	a5,s7,a5
80002a9c:	fffd0993          	addi	s3,s10,-1
80002aa0:	0177e863          	bltu	a5,s7,80002ab0 <__umoddi3+0x394>
80002aa4:	0197f663          	bgeu	a5,s9,80002ab0 <__umoddi3+0x394>
80002aa8:	ffed0993          	addi	s3,s10,-2
80002aac:	017787b3          	add	a5,a5,s7
80002ab0:	41978cb3          	sub	s9,a5,s9
80002ab4:	00048593          	mv	a1,s1
80002ab8:	000c8513          	mv	a0,s9
80002abc:	15c000ef          	jal	ra,80002c18 <__hidden___udivsi3>
80002ac0:	00050593          	mv	a1,a0
80002ac4:	00050d13          	mv	s10,a0
80002ac8:	000c0513          	mv	a0,s8
80002acc:	120000ef          	jal	ra,80002bec <__mulsi3>
80002ad0:	00048593          	mv	a1,s1
80002ad4:	00050c13          	mv	s8,a0
80002ad8:	000c8513          	mv	a0,s9
80002adc:	184000ef          	jal	ra,80002c60 <__umodsi3>
80002ae0:	01041593          	slli	a1,s0,0x10
80002ae4:	01051513          	slli	a0,a0,0x10
80002ae8:	0105d593          	srli	a1,a1,0x10
80002aec:	00a5e5b3          	or	a1,a1,a0
80002af0:	000d0793          	mv	a5,s10
80002af4:	0185fe63          	bgeu	a1,s8,80002b10 <__umoddi3+0x3f4>
80002af8:	00bb85b3          	add	a1,s7,a1
80002afc:	fffd0793          	addi	a5,s10,-1
80002b00:	0175e863          	bltu	a1,s7,80002b10 <__umoddi3+0x3f4>
80002b04:	0185f663          	bgeu	a1,s8,80002b10 <__umoddi3+0x3f4>
80002b08:	ffed0793          	addi	a5,s10,-2
80002b0c:	017585b3          	add	a1,a1,s7
80002b10:	00010e37          	lui	t3,0x10
80002b14:	01099993          	slli	s3,s3,0x10
80002b18:	00f9e9b3          	or	s3,s3,a5
80002b1c:	fffe0793          	addi	a5,t3,-1 # ffff <buflen.1+0xffbf>
80002b20:	00f9f733          	and	a4,s3,a5
80002b24:	00f977b3          	and	a5,s2,a5
80002b28:	418584b3          	sub	s1,a1,s8
80002b2c:	0109d993          	srli	s3,s3,0x10
80002b30:	01095313          	srli	t1,s2,0x10
80002b34:	00070513          	mv	a0,a4
80002b38:	00078593          	mv	a1,a5
80002b3c:	0b0000ef          	jal	ra,80002bec <__mulsi3>
80002b40:	00050813          	mv	a6,a0
80002b44:	00030593          	mv	a1,t1
80002b48:	00070513          	mv	a0,a4
80002b4c:	0a0000ef          	jal	ra,80002bec <__mulsi3>
80002b50:	00050713          	mv	a4,a0
80002b54:	00078593          	mv	a1,a5
80002b58:	00098513          	mv	a0,s3
80002b5c:	090000ef          	jal	ra,80002bec <__mulsi3>
80002b60:	00050893          	mv	a7,a0
80002b64:	00030593          	mv	a1,t1
80002b68:	00098513          	mv	a0,s3
80002b6c:	080000ef          	jal	ra,80002bec <__mulsi3>
80002b70:	01085793          	srli	a5,a6,0x10
80002b74:	01170733          	add	a4,a4,a7
80002b78:	00e787b3          	add	a5,a5,a4
80002b7c:	00050693          	mv	a3,a0
80002b80:	0117f463          	bgeu	a5,a7,80002b88 <__umoddi3+0x46c>
80002b84:	01c506b3          	add	a3,a0,t3
80002b88:	0107d713          	srli	a4,a5,0x10
80002b8c:	00d70733          	add	a4,a4,a3
80002b90:	000106b7          	lui	a3,0x10
80002b94:	fff68693          	addi	a3,a3,-1 # ffff <buflen.1+0xffbf>
80002b98:	00d7f7b3          	and	a5,a5,a3
80002b9c:	01079793          	slli	a5,a5,0x10
80002ba0:	00d87833          	and	a6,a6,a3
80002ba4:	010787b3          	add	a5,a5,a6
80002ba8:	00e4e663          	bltu	s1,a4,80002bb4 <__umoddi3+0x498>
80002bac:	00e49e63          	bne	s1,a4,80002bc8 <__umoddi3+0x4ac>
80002bb0:	00fb7c63          	bgeu	s6,a5,80002bc8 <__umoddi3+0x4ac>
80002bb4:	41278933          	sub	s2,a5,s2
80002bb8:	0127b6b3          	sltu	a3,a5,s2
80002bbc:	017686b3          	add	a3,a3,s7
80002bc0:	00090793          	mv	a5,s2
80002bc4:	40d70733          	sub	a4,a4,a3
80002bc8:	40fb07b3          	sub	a5,s6,a5
80002bcc:	00fb3b33          	sltu	s6,s6,a5
80002bd0:	40e485b3          	sub	a1,s1,a4
80002bd4:	416585b3          	sub	a1,a1,s6
80002bd8:	01559ab3          	sll	s5,a1,s5
80002bdc:	0147d7b3          	srl	a5,a5,s4
80002be0:	00fae533          	or	a0,s5,a5
80002be4:	0145d5b3          	srl	a1,a1,s4
80002be8:	c71ff06f          	j	80002858 <__umoddi3+0x13c>

80002bec <__mulsi3>:
80002bec:	00050613          	mv	a2,a0
80002bf0:	00000513          	li	a0,0
80002bf4:	0015f693          	andi	a3,a1,1
80002bf8:	00068463          	beqz	a3,80002c00 <__mulsi3+0x14>
80002bfc:	00c50533          	add	a0,a0,a2
80002c00:	0015d593          	srli	a1,a1,0x1
80002c04:	00161613          	slli	a2,a2,0x1
80002c08:	fe0596e3          	bnez	a1,80002bf4 <__mulsi3+0x8>
80002c0c:	00008067          	ret

80002c10 <__divsi3>:
80002c10:	06054063          	bltz	a0,80002c70 <__umodsi3+0x10>
80002c14:	0605c663          	bltz	a1,80002c80 <__umodsi3+0x20>

80002c18 <__hidden___udivsi3>:
80002c18:	00058613          	mv	a2,a1
80002c1c:	00050593          	mv	a1,a0
80002c20:	fff00513          	li	a0,-1
80002c24:	02060c63          	beqz	a2,80002c5c <__hidden___udivsi3+0x44>
80002c28:	00100693          	li	a3,1
80002c2c:	00b67a63          	bgeu	a2,a1,80002c40 <__hidden___udivsi3+0x28>
80002c30:	00c05863          	blez	a2,80002c40 <__hidden___udivsi3+0x28>
80002c34:	00161613          	slli	a2,a2,0x1
80002c38:	00169693          	slli	a3,a3,0x1
80002c3c:	feb66ae3          	bltu	a2,a1,80002c30 <__hidden___udivsi3+0x18>
80002c40:	00000513          	li	a0,0
80002c44:	00c5e663          	bltu	a1,a2,80002c50 <__hidden___udivsi3+0x38>
80002c48:	40c585b3          	sub	a1,a1,a2
80002c4c:	00d56533          	or	a0,a0,a3
80002c50:	0016d693          	srli	a3,a3,0x1
80002c54:	00165613          	srli	a2,a2,0x1
80002c58:	fe0696e3          	bnez	a3,80002c44 <__hidden___udivsi3+0x2c>
80002c5c:	00008067          	ret

80002c60 <__umodsi3>:
80002c60:	00008293          	mv	t0,ra
80002c64:	fb5ff0ef          	jal	ra,80002c18 <__hidden___udivsi3>
80002c68:	00058513          	mv	a0,a1
80002c6c:	00028067          	jr	t0
80002c70:	40a00533          	neg	a0,a0
80002c74:	00b04863          	bgtz	a1,80002c84 <__umodsi3+0x24>
80002c78:	40b005b3          	neg	a1,a1
80002c7c:	f9dff06f          	j	80002c18 <__hidden___udivsi3>
80002c80:	40b005b3          	neg	a1,a1
80002c84:	00008293          	mv	t0,ra
80002c88:	f91ff0ef          	jal	ra,80002c18 <__hidden___udivsi3>
80002c8c:	40a00533          	neg	a0,a0
80002c90:	00028067          	jr	t0

80002c94 <__modsi3>:
80002c94:	00008293          	mv	t0,ra
80002c98:	0005ca63          	bltz	a1,80002cac <__modsi3+0x18>
80002c9c:	00054c63          	bltz	a0,80002cb4 <__modsi3+0x20>
80002ca0:	f79ff0ef          	jal	ra,80002c18 <__hidden___udivsi3>
80002ca4:	00058513          	mv	a0,a1
80002ca8:	00028067          	jr	t0
80002cac:	40b005b3          	neg	a1,a1
80002cb0:	fe0558e3          	bgez	a0,80002ca0 <__modsi3+0xc>
80002cb4:	40a00533          	neg	a0,a0
80002cb8:	f61ff0ef          	jal	ra,80002c18 <__hidden___udivsi3>
80002cbc:	40b00533          	neg	a0,a1
80002cc0:	00028067          	jr	t0

Disassembly of section .text.startup:

80002cc4 <main>:
80002cc4:	9b010113          	addi	sp,sp,-1616
80002cc8:	00000597          	auipc	a1,0x0
80002ccc:	45458593          	addi	a1,a1,1108 # 8000311c <input_data>
80002cd0:	00010613          	mv	a2,sp
80002cd4:	19000513          	li	a0,400
80002cd8:	64112623          	sw	ra,1612(sp)
80002cdc:	b24fe0ef          	jal	ra,80001000 <median>
80002ce0:	00100513          	li	a0,1
80002ce4:	931fe0ef          	jal	ra,80001614 <setStats>
80002ce8:	00010613          	mv	a2,sp
80002cec:	00000597          	auipc	a1,0x0
80002cf0:	43058593          	addi	a1,a1,1072 # 8000311c <input_data>
80002cf4:	19000513          	li	a0,400
80002cf8:	b08fe0ef          	jal	ra,80001000 <median>
80002cfc:	00000513          	li	a0,0
80002d00:	915fe0ef          	jal	ra,80001614 <setStats>
80002d04:	00010793          	mv	a5,sp
80002d08:	00001717          	auipc	a4,0x1
80002d0c:	a5470713          	addi	a4,a4,-1452 # 8000375c <verify_data>
80002d10:	00000513          	li	a0,0
80002d14:	19000893          	li	a7,400
80002d18:	0180006f          	j	80002d30 <main+0x6c>
80002d1c:	00250513          	addi	a0,a0,2
80002d20:	02b81463          	bne	a6,a1,80002d48 <main+0x84>
80002d24:	00878793          	addi	a5,a5,8 # 10008 <buflen.1+0xffc8>
80002d28:	00870713          	addi	a4,a4,8
80002d2c:	03150463          	beq	a0,a7,80002d54 <main+0x90>
80002d30:	0007a603          	lw	a2,0(a5)
80002d34:	00072683          	lw	a3,0(a4)
80002d38:	0047a803          	lw	a6,4(a5)
80002d3c:	00472583          	lw	a1,4(a4)
80002d40:	fcd60ee3          	beq	a2,a3,80002d1c <main+0x58>
80002d44:	00150513          	addi	a0,a0,1
80002d48:	64c12083          	lw	ra,1612(sp)
80002d4c:	65010113          	addi	sp,sp,1616
80002d50:	00008067          	ret
80002d54:	00000513          	li	a0,0
80002d58:	ff1ff06f          	j	80002d48 <main+0x84>
80002d5c:	ff010113          	addi	sp,sp,-16
80002d60:	00000517          	auipc	a0,0x0
80002d64:	03c50513          	addi	a0,a0,60 # 80002d9c <main+0xd8>
80002d68:	00112623          	sw	ra,12(sp)
80002d6c:	995fe0ef          	jal	ra,80001700 <printstr>
80002d70:	00c12083          	lw	ra,12(sp)
80002d74:	fff00513          	li	a0,-1
80002d78:	01010113          	addi	sp,sp,16
80002d7c:	00008067          	ret

Disassembly of section .data:

8000311c <input_data>:
8000311c:	0029                	.2byte	0x29
8000311e:	0000                	.2byte	0x0
80003120:	01c6                	.2byte	0x1c6
80003122:	0000                	.2byte	0x0
80003124:	0341                	.2byte	0x341
80003126:	0000                	.2byte	0x0
80003128:	0000014f          	.4byte	0x14f
8000312c:	0234                	.2byte	0x234
8000312e:	0000                	.2byte	0x0
80003130:	0001                	.2byte	0x1
80003132:	0000                	.2byte	0x0
80003134:	000000bb          	.4byte	0xbb
80003138:	03dd                	.2byte	0x3dd
8000313a:	0000                	.2byte	0x0
8000313c:	02ed                	.2byte	0x2ed
8000313e:	0000                	.2byte	0x0
80003140:	016d                	.2byte	0x16d
80003142:	0000                	.2byte	0x0
80003144:	015e                	.2byte	0x15e
80003146:	0000                	.2byte	0x0
80003148:	023c                	.2byte	0x23c
8000314a:	0000                	.2byte	0x0
8000314c:	0084                	.2byte	0x84
8000314e:	0000                	.2byte	0x0
80003150:	0040                	.2byte	0x40
80003152:	0000                	.2byte	0x0
80003154:	03b5                	.2byte	0x3b5
80003156:	0000                	.2byte	0x0
80003158:	0099                	.2byte	0x99
8000315a:	0000                	.2byte	0x0
8000315c:	0248                	.2byte	0x248
8000315e:	0000                	.2byte	0x0
80003160:	00d8                	.2byte	0xd8
80003162:	0000                	.2byte	0x0
80003164:	0325                	.2byte	0x325
80003166:	0000                	.2byte	0x0
80003168:	008c                	.2byte	0x8c
8000316a:	0000                	.2byte	0x0
8000316c:	026d                	.2byte	0x26d
8000316e:	0000                	.2byte	0x0
80003170:	00d2                	.2byte	0xd2
80003172:	0000                	.2byte	0x0
80003174:	0006                	.2byte	0x6
80003176:	0000                	.2byte	0x0
80003178:	023c                	.2byte	0x23c
8000317a:	0000                	.2byte	0x0
8000317c:	000003a3          	sb	zero,7(zero) # 7 <buf.2+0x7>
80003180:	00000153          	.4byte	0x153
80003184:	037a                	.2byte	0x37a
80003186:	0000                	.2byte	0x0
80003188:	0251                	.2byte	0x251
8000318a:	0000                	.2byte	0x0
8000318c:	0188                	.2byte	0x188
8000318e:	0000                	.2byte	0x0
80003190:	0382                	.2byte	0x382
80003192:	0000                	.2byte	0x0
80003194:	02b6                	.2byte	0x2b6
80003196:	0000                	.2byte	0x0
80003198:	00e4                	.2byte	0xe4
8000319a:	0000                	.2byte	0x0
8000319c:	03c1                	.2byte	0x3c1
8000319e:	0000                	.2byte	0x0
800031a0:	000c                	.2byte	0xc
800031a2:	0000                	.2byte	0x0
800031a4:	006e                	.2byte	0x6e
800031a6:	0000                	.2byte	0x0
800031a8:	00000373          	.4byte	0x373
800031ac:	0074                	.2byte	0x74
800031ae:	0000                	.2byte	0x0
800031b0:	02ee                	.2byte	0x2ee
800031b2:	0000                	.2byte	0x0
800031b4:	0128                	.2byte	0x128
800031b6:	0000                	.2byte	0x0
800031b8:	0286                	.2byte	0x286
800031ba:	0000                	.2byte	0x0
800031bc:	01aa                	.2byte	0x1aa
800031be:	0000                	.2byte	0x0
800031c0:	01f4                	.2byte	0x1f4
800031c2:	0000                	.2byte	0x0
800031c4:	013a                	.2byte	0x13a
800031c6:	0000                	.2byte	0x0
800031c8:	01b4                	.2byte	0x1b4
800031ca:	0000                	.2byte	0x0
800031cc:	00000293          	li	t0,0
800031d0:	02bd                	.2byte	0x2bd
800031d2:	0000                	.2byte	0x0
800031d4:	0306                	.2byte	0x306
800031d6:	0000                	.2byte	0x0
800031d8:	032c                	.2byte	0x32c
800031da:	0000                	.2byte	0x0
800031dc:	0000013f 000003d5 	.8byte	0x3d50000013f
800031e4:	02a6                	.2byte	0x2a6
800031e6:	0000                	.2byte	0x0
800031e8:	0096                	.2byte	0x96
800031ea:	0000                	.2byte	0x0
800031ec:	0000036b          	.4byte	0x36b
800031f0:	02b8                	.2byte	0x2b8
800031f2:	0000                	.2byte	0x0
800031f4:	0178                	.2byte	0x178
800031f6:	0000                	.2byte	0x0
800031f8:	0234                	.2byte	0x234
800031fa:	0000                	.2byte	0x0
800031fc:	01da                	.2byte	0x1da
800031fe:	0000                	.2byte	0x0
80003200:	0110                	.2byte	0x110
80003202:	0000                	.2byte	0x0
80003204:	03aa                	.2byte	0x3aa
80003206:	0000                	.2byte	0x0
80003208:	0102                	.2byte	0x102
8000320a:	0000                	.2byte	0x0
8000320c:	0000021b          	.4byte	0x21b
80003210:	00000287          	.4byte	0x287
80003214:	0239                	.2byte	0x239
80003216:	0000                	.2byte	0x0
80003218:	01fd                	.2byte	0x1fd
8000321a:	0000                	.2byte	0x0
8000321c:	000000cb          	.4byte	0xcb
80003220:	0058                	.2byte	0x58
80003222:	0000                	.2byte	0x0
80003224:	0118                	.2byte	0x118
80003226:	0000                	.2byte	0x0
80003228:	000002bf 000002f7 	.8byte	0x2f7000002bf
80003230:	029d                	.2byte	0x29d
80003232:	0000                	.2byte	0x0
80003234:	025e                	.2byte	0x25e
80003236:	0000                	.2byte	0x0
80003238:	00000177          	.4byte	0x177
8000323c:	01ff                	.2byte	0x1ff
8000323e:	0000                	.2byte	0x0
80003240:	00000227          	.4byte	0x227
80003244:	0291                	.2byte	0x291
80003246:	0000                	.2byte	0x0
80003248:	03a8                	.2byte	0x3a8
8000324a:	0000                	.2byte	0x0
8000324c:	000000c3          	.4byte	0xc3
80003250:	0250                	.2byte	0x250
80003252:	0000                	.2byte	0x0
80003254:	0051                	.2byte	0x51
80003256:	0000                	.2byte	0x0
80003258:	0239                	.2byte	0x239
8000325a:	0000                	.2byte	0x0
8000325c:	0000010b          	.4byte	0x10b
80003260:	03b8                	.2byte	0x3b8
80003262:	0000                	.2byte	0x0
80003264:	00e5                	.2byte	0xe5
80003266:	0000                	.2byte	0x0
80003268:	0320                	.2byte	0x320
8000326a:	0000                	.2byte	0x0
8000326c:	0151                	.2byte	0x151
8000326e:	0000                	.2byte	0x0
80003270:	0248                	.2byte	0x248
80003272:	0000                	.2byte	0x0
80003274:	03b0                	.2byte	0x3b0
80003276:	0000                	.2byte	0x0
80003278:	00000283          	lb	t0,0(zero) # 0 <buf.2>
8000327c:	0386                	.2byte	0x386
8000327e:	0000                	.2byte	0x0
80003280:	0170                	.2byte	0x170
80003282:	0000                	.2byte	0x0
80003284:	00f1                	.2byte	0xf1
80003286:	0000                	.2byte	0x0
80003288:	01e9                	.2byte	0x1e9
8000328a:	0000                	.2byte	0x0
8000328c:	0391                	.2byte	0x391
8000328e:	0000                	.2byte	0x0
80003290:	0148                	.2byte	0x148
80003292:	0000                	.2byte	0x0
80003294:	033a                	.2byte	0x33a
80003296:	0000                	.2byte	0x0
80003298:	0139                	.2byte	0x139
8000329a:	0000                	.2byte	0x0
8000329c:	03a5                	.2byte	0x3a5
8000329e:	0000                	.2byte	0x0
800032a0:	0250                	.2byte	0x250
800032a2:	0000                	.2byte	0x0
800032a4:	03d9                	.2byte	0x3d9
800032a6:	0000                	.2byte	0x0
800032a8:	0184                	.2byte	0x184
800032aa:	0000                	.2byte	0x0
800032ac:	000000c3          	.4byte	0xc3
800032b0:	021f 0000 03c0      	.byte	0x1f, 0x02, 0x00, 0x00, 0xc0, 0x03
800032b6:	0000                	.2byte	0x0
800032b8:	0289                	.2byte	0x289
800032ba:	0000                	.2byte	0x0
800032bc:	0236                	.2byte	0x236
800032be:	0000                	.2byte	0x0
800032c0:	000003d3          	.4byte	0x3d3
800032c4:	015e                	.2byte	0x15e
800032c6:	0000                	.2byte	0x0
800032c8:	03e5                	.2byte	0x3e5
800032ca:	0000                	.2byte	0x0
800032cc:	0289                	.2byte	0x289
800032ce:	0000                	.2byte	0x0
800032d0:	032e                	.2byte	0x32e
800032d2:	0000                	.2byte	0x0
800032d4:	0291                	.2byte	0x291
800032d6:	0000                	.2byte	0x0
800032d8:	0000004f          	.4byte	0x4f
800032dc:	00b5                	.2byte	0xb5
800032de:	0000                	.2byte	0x0
800032e0:	00d0                	.2byte	0xd0
800032e2:	0000                	.2byte	0x0
800032e4:	0000006f          	j	800032e4 <input_data+0x1c8>
800032e8:	03e6                	.2byte	0x3e6
800032ea:	0000                	.2byte	0x0
800032ec:	0000035b          	.4byte	0x35b
800032f0:	0275                	.2byte	0x275
800032f2:	0000                	.2byte	0x0
800032f4:	0041                	.2byte	0x41
800032f6:	0000                	.2byte	0x0
800032f8:	0000034f          	.4byte	0x34f
800032fc:	0120                	.2byte	0x120
800032fe:	0000                	.2byte	0x0
80003300:	02c0                	.2byte	0x2c0
80003302:	0000                	.2byte	0x0
80003304:	015d                	.2byte	0x15d
80003306:	0000                	.2byte	0x0
80003308:	03e5                	.2byte	0x3e5
8000330a:	0000                	.2byte	0x0
8000330c:	008d                	.2byte	0x8d
8000330e:	0000                	.2byte	0x0
80003310:	00fd                	.2byte	0xfd
80003312:	0000                	.2byte	0x0
80003314:	0389                	.2byte	0x389
80003316:	0000                	.2byte	0x0
80003318:	000002cb          	.4byte	0x2cb
8000331c:	0376                	.2byte	0x376
8000331e:	0000                	.2byte	0x0
80003320:	01ae                	.2byte	0x1ae
80003322:	0000                	.2byte	0x0
80003324:	0108                	.2byte	0x108
80003326:	0000                	.2byte	0x0
80003328:	019f 0000 0240      	.byte	0x9f, 0x01, 0x00, 0x00, 0x40, 0x02
8000332e:	0000                	.2byte	0x0
80003330:	021a                	.2byte	0x21a
80003332:	0000                	.2byte	0x0
80003334:	000003d3          	.4byte	0x3d3
80003338:	02bc                	.2byte	0x2bc
8000333a:	0000                	.2byte	0x0
8000333c:	02f9                	.2byte	0x2f9
8000333e:	0000                	.2byte	0x0
80003340:	0004                	.2byte	0x4
80003342:	0000                	.2byte	0x0
80003344:	00f1                	.2byte	0xf1
80003346:	0000                	.2byte	0x0
80003348:	01ee                	.2byte	0x1ee
8000334a:	0000                	.2byte	0x0
8000334c:	01de                	.2byte	0x1de
8000334e:	0000                	.2byte	0x0
80003350:	0064                	.2byte	0x64
80003352:	0000                	.2byte	0x0
80003354:	000001f3          	.4byte	0x1f3
80003358:	0360                	.2byte	0x360
8000335a:	0000                	.2byte	0x0
8000335c:	00000193          	li	gp,0
80003360:	02b5                	.2byte	0x2b5
80003362:	0000                	.2byte	0x0
80003364:	00de                	.2byte	0xde
80003366:	0000                	.2byte	0x0
80003368:	01a0                	.2byte	0x1a0
8000336a:	0000                	.2byte	0x0
8000336c:	01bc                	.2byte	0x1bc
8000336e:	0000                	.2byte	0x0
80003370:	0128                	.2byte	0x128
80003372:	0000                	.2byte	0x0
80003374:	02d1                	.2byte	0x2d1
80003376:	0000                	.2byte	0x0
80003378:	011d                	.2byte	0x11d
8000337a:	0000                	.2byte	0x0
8000337c:	02a4                	.2byte	0x2a4
8000337e:	0000                	.2byte	0x0
80003380:	026c                	.2byte	0x26c
80003382:	0000                	.2byte	0x0
80003384:	013d                	.2byte	0x13d
80003386:	0000                	.2byte	0x0
80003388:	004e                	.2byte	0x4e
8000338a:	0000                	.2byte	0x0
8000338c:	00e0                	.2byte	0xe0
8000338e:	0000                	.2byte	0x0
80003390:	015f 0000 03a9      	.byte	0x5f, 0x01, 0x00, 0x00, 0xa9, 0x03
80003396:	0000                	.2byte	0x0
80003398:	021c                	.2byte	0x21c
8000339a:	0000                	.2byte	0x0
8000339c:	0120                	.2byte	0x120
8000339e:	0000                	.2byte	0x0
800033a0:	0286                	.2byte	0x286
800033a2:	0000                	.2byte	0x0
800033a4:	00000077          	.4byte	0x77
800033a8:	00a9                	.2byte	0xa9
800033aa:	0000                	.2byte	0x0
800033ac:	00000267          	jalr	tp,zero # 0 <buf.2>
800033b0:	0000020f          	.4byte	0x20f
800033b4:	025e                	.2byte	0x25e
800033b6:	0000                	.2byte	0x0
800033b8:	0121                	.2byte	0x121
800033ba:	0000                	.2byte	0x0
800033bc:	0185                	.2byte	0x185
800033be:	0000                	.2byte	0x0
800033c0:	031c                	.2byte	0x31c
800033c2:	0000                	.2byte	0x0
800033c4:	015f 0000 0321      	.byte	0x5f, 0x01, 0x00, 0x00, 0x21, 0x03
800033ca:	0000                	.2byte	0x0
800033cc:	000001c7          	.4byte	0x1c7
800033d0:	02d0                	.2byte	0x2d0
800033d2:	0000                	.2byte	0x0
800033d4:	0116                	.2byte	0x116
800033d6:	0000                	.2byte	0x0
800033d8:	02f6                	.2byte	0x2f6
800033da:	0000                	.2byte	0x0
800033dc:	0000016f          	jal	sp,800033dc <input_data+0x2c0>
800033e0:	02e9                	.2byte	0x2e9
800033e2:	0000                	.2byte	0x0
800033e4:	0166                	.2byte	0x166
800033e6:	0000                	.2byte	0x0
800033e8:	005c                	.2byte	0x5c
800033ea:	0000                	.2byte	0x0
800033ec:	0248                	.2byte	0x248
800033ee:	0000                	.2byte	0x0
800033f0:	03dd                	.2byte	0x3dd
800033f2:	0000                	.2byte	0x0
800033f4:	003e                	.2byte	0x3e
800033f6:	0000                	.2byte	0x0
800033f8:	0000010f          	.4byte	0x10f
800033fc:	03d9                	.2byte	0x3d9
800033fe:	0000                	.2byte	0x0
80003400:	0355                	.2byte	0x355
80003402:	0000                	.2byte	0x0
80003404:	00000193          	li	gp,0
80003408:	0314                	.2byte	0x314
8000340a:	0000                	.2byte	0x0
8000340c:	015a                	.2byte	0x15a
8000340e:	0000                	.2byte	0x0
80003410:	00000213          	li	tp,0
80003414:	0205                	.2byte	0x205
80003416:	0000                	.2byte	0x0
80003418:	00de                	.2byte	0xde
8000341a:	0000                	.2byte	0x0
8000341c:	0000022f          	.4byte	0x22f
80003420:	01cd                	.2byte	0x1cd
80003422:	0000                	.2byte	0x0
80003424:	038c                	.2byte	0x38c
80003426:	0000                	.2byte	0x0
80003428:	00f1                	.2byte	0xf1
8000342a:	0000                	.2byte	0x0
8000342c:	00000307          	.4byte	0x307
80003430:	0166                	.2byte	0x166
80003432:	0000                	.2byte	0x0
80003434:	00ff                	.2byte	0xff
80003436:	0000                	.2byte	0x0
80003438:	014c                	.2byte	0x14c
8000343a:	0000                	.2byte	0x0
8000343c:	030a                	.2byte	0x30a
8000343e:	0000                	.2byte	0x0
80003440:	02ac                	.2byte	0x2ac
80003442:	0000                	.2byte	0x0
80003444:	0256                	.2byte	0x256
80003446:	0000                	.2byte	0x0
80003448:	02e4                	.2byte	0x2e4
8000344a:	0000                	.2byte	0x0
8000344c:	0000008f          	.4byte	0x8f
80003450:	01be                	.2byte	0x1be
80003452:	0000                	.2byte	0x0
80003454:	0021                	.2byte	0x21
80003456:	0000                	.2byte	0x0
80003458:	00000137          	lui	sp,0x0
8000345c:	007d                	.2byte	0x7d
8000345e:	0000                	.2byte	0x0
80003460:	000002e7          	jalr	t0,zero # 0 <buf.2>
80003464:	03ad                	.2byte	0x3ad
80003466:	0000                	.2byte	0x0
80003468:	022d                	.2byte	0x22d
8000346a:	0000                	.2byte	0x0
8000346c:	03a5                	.2byte	0x3a5
8000346e:	0000                	.2byte	0x0
80003470:	01df 0000 031f      	.byte	0xdf, 0x01, 0x00, 0x00, 0x1f, 0x03
80003476:	0000                	.2byte	0x0
80003478:	022d                	.2byte	0x22d
8000347a:	0000                	.2byte	0x0
8000347c:	0229                	.2byte	0x229
8000347e:	0000                	.2byte	0x0
80003480:	039d                	.2byte	0x39d
80003482:	0000                	.2byte	0x0
80003484:	000001af          	.4byte	0x1af
80003488:	031c                	.2byte	0x31c
8000348a:	0000                	.2byte	0x0
8000348c:	0288                	.2byte	0x288
8000348e:	0000                	.2byte	0x0
80003490:	0165                	.2byte	0x165
80003492:	0000                	.2byte	0x0
80003494:	03b8                	.2byte	0x3b8
80003496:	0000                	.2byte	0x0
80003498:	0000037b          	.4byte	0x37b
8000349c:	011f 0000 029a      	.byte	0x1f, 0x01, 0x00, 0x00, 0x9a, 0x02
800034a2:	0000                	.2byte	0x0
800034a4:	00000013          	nop
800034a8:	0202                	.2byte	0x202
800034aa:	0000                	.2byte	0x0
800034ac:	0031                	.2byte	0x31
800034ae:	0000                	.2byte	0x0
800034b0:	022d                	.2byte	0x22d
800034b2:	0000                	.2byte	0x0
800034b4:	0056                	.2byte	0x56
800034b6:	0000                	.2byte	0x0
800034b8:	0366                	.2byte	0x366
800034ba:	0000                	.2byte	0x0
800034bc:	005f 0000 0355      	.byte	0x5f, 0x00, 0x00, 0x00, 0x55, 0x03
800034c2:	0000                	.2byte	0x0
800034c4:	01b9                	.2byte	0x1b9
800034c6:	0000                	.2byte	0x0
800034c8:	01b8                	.2byte	0x1b8
800034ca:	0000                	.2byte	0x0
800034cc:	0000024b          	.4byte	0x24b
800034d0:	003d                	.2byte	0x3d
800034d2:	0000                	.2byte	0x0
800034d4:	0266                	.2byte	0x266
800034d6:	0000                	.2byte	0x0
800034d8:	02a6                	.2byte	0x2a6
800034da:	0000                	.2byte	0x0
800034dc:	017e                	.2byte	0x17e
800034de:	0000                	.2byte	0x0
800034e0:	018c                	.2byte	0x18c
800034e2:	0000                	.2byte	0x0
800034e4:	0118                	.2byte	0x118
800034e6:	0000                	.2byte	0x0
800034e8:	0009                	.2byte	0x9
800034ea:	0000                	.2byte	0x0
800034ec:	0328                	.2byte	0x328
800034ee:	0000                	.2byte	0x0
800034f0:	0011                	.2byte	0x11
800034f2:	0000                	.2byte	0x0
800034f4:	000003cb          	.4byte	0x3cb
800034f8:	00aa                	.2byte	0xaa
800034fa:	0000                	.2byte	0x0
800034fc:	00000333          	add	t1,zero,zero
80003500:	00000123          	sb	zero,2(zero) # 2 <buf.2+0x2>
80003504:	0158                	.2byte	0x158
80003506:	0000                	.2byte	0x0
80003508:	017c                	.2byte	0x17c
8000350a:	0000                	.2byte	0x0
8000350c:	01c2                	.2byte	0x1c2
8000350e:	0000                	.2byte	0x0
80003510:	0218                	.2byte	0x218
80003512:	0000                	.2byte	0x0
80003514:	0200                	.2byte	0x200
80003516:	0000                	.2byte	0x0
80003518:	00b9                	.2byte	0xb9
8000351a:	0000                	.2byte	0x0
8000351c:	03c5                	.2byte	0x3c5
8000351e:	0000                	.2byte	0x0
80003520:	0395                	.2byte	0x395
80003522:	0000                	.2byte	0x0
80003524:	0000015b          	.4byte	0x15b
80003528:	0000021b          	.4byte	0x21b
8000352c:	0328                	.2byte	0x328
8000352e:	0000                	.2byte	0x0
80003530:	000003d7          	.4byte	0x3d7
80003534:	0372                	.2byte	0x372
80003536:	0000                	.2byte	0x0
80003538:	00000377          	.4byte	0x377
8000353c:	0219                	.2byte	0x219
8000353e:	0000                	.2byte	0x0
80003540:	0036                	.2byte	0x36
80003542:	0000                	.2byte	0x0
80003544:	03b2                	.2byte	0x3b2
80003546:	0000                	.2byte	0x0
80003548:	0264                	.2byte	0x264
8000354a:	0000                	.2byte	0x0
8000354c:	02bd                	.2byte	0x2bd
8000354e:	0000                	.2byte	0x0
80003550:	000003b7          	lui	t2,0x0
80003554:	0164                	.2byte	0x164
80003556:	0000                	.2byte	0x0
80003558:	01df 0000 0237      	.byte	0xdf, 0x01, 0x00, 0x00, 0x37, 0x02
8000355e:	0000                	.2byte	0x0
80003560:	00000097          	auipc	ra,0x0
80003564:	0000037b          	.4byte	0x37b
80003568:	00000007          	.4byte	0x7
8000356c:	0016                	.2byte	0x16
8000356e:	0000                	.2byte	0x0
80003570:	0281                	.2byte	0x281
80003572:	0000                	.2byte	0x0
80003574:	0238                	.2byte	0x238
80003576:	0000                	.2byte	0x0
80003578:	0000014f          	.4byte	0x14f
8000357c:	0299                	.2byte	0x299
8000357e:	0000                	.2byte	0x0
80003580:	02da                	.2byte	0x2da
80003582:	0000                	.2byte	0x0
80003584:	000001a7          	.4byte	0x1a7
80003588:	005f 0000 01b2      	.byte	0x5f, 0x00, 0x00, 0x00, 0xb2, 0x01
8000358e:	0000                	.2byte	0x0
80003590:	02d8                	.2byte	0x2d8
80003592:	0000                	.2byte	0x0
80003594:	009e                	.2byte	0x9e
80003596:	0000                	.2byte	0x0
80003598:	0118                	.2byte	0x118
8000359a:	0000                	.2byte	0x0
8000359c:	0002                	.2byte	0x2
8000359e:	0000                	.2byte	0x0
800035a0:	0000018b          	.4byte	0x18b
800035a4:	0054                	.2byte	0x54
800035a6:	0000                	.2byte	0x0
800035a8:	02b0                	.2byte	0x2b0
800035aa:	0000                	.2byte	0x0
800035ac:	000000f7          	.4byte	0xf7
800035b0:	0000038f          	.4byte	0x38f
800035b4:	0031                	.2byte	0x31
800035b6:	0000                	.2byte	0x0
800035b8:	01dc                	.2byte	0x1dc
800035ba:	0000                	.2byte	0x0
800035bc:	000001b3          	add	gp,zero,zero
800035c0:	0000032f          	.4byte	0x32f
800035c4:	0318                	.2byte	0x318
800035c6:	0000                	.2byte	0x0
800035c8:	02d9                	.2byte	0x2d9
800035ca:	0000                	.2byte	0x0
800035cc:	0365                	.2byte	0x365
800035ce:	0000                	.2byte	0x0
800035d0:	0109                	.2byte	0x109
800035d2:	0000                	.2byte	0x0
800035d4:	01e6                	.2byte	0x1e6
800035d6:	0000                	.2byte	0x0
800035d8:	007f                	.2byte	0x7f
800035da:	0000                	.2byte	0x0
800035dc:	019e                	.2byte	0x19e
800035de:	0000                	.2byte	0x0
800035e0:	00ec                	.2byte	0xec
800035e2:	0000                	.2byte	0x0
800035e4:	0171                	.2byte	0x171
800035e6:	0000                	.2byte	0x0
800035e8:	00d6                	.2byte	0xd6
800035ea:	0000                	.2byte	0x0
800035ec:	0224                	.2byte	0x224
800035ee:	0000                	.2byte	0x0
800035f0:	00b4                	.2byte	0xb4
800035f2:	0000                	.2byte	0x0
800035f4:	0206                	.2byte	0x206
800035f6:	0000                	.2byte	0x0
800035f8:	0006                	.2byte	0x6
800035fa:	0000                	.2byte	0x0
800035fc:	0378                	.2byte	0x378
800035fe:	0000                	.2byte	0x0
80003600:	000001f7          	.4byte	0x1f7
80003604:	02aa                	.2byte	0x2aa
80003606:	0000                	.2byte	0x0
80003608:	0254                	.2byte	0x254
8000360a:	0000                	.2byte	0x0
8000360c:	011c                	.2byte	0x11c
8000360e:	0000                	.2byte	0x0
80003610:	00ad                	.2byte	0xad
80003612:	0000                	.2byte	0x0
80003614:	0108                	.2byte	0x108
80003616:	0000                	.2byte	0x0
80003618:	00000283          	lb	t0,0(zero) # 0 <buf.2>
8000361c:	000001f3          	.4byte	0x1f3
80003620:	015a                	.2byte	0x15a
80003622:	0000                	.2byte	0x0
80003624:	0122                	.2byte	0x122
80003626:	0000                	.2byte	0x0
80003628:	00000257          	.4byte	0x257
8000362c:	0381                	.2byte	0x381
8000362e:	0000                	.2byte	0x0
80003630:	0044                	.2byte	0x44
80003632:	0000                	.2byte	0x0
80003634:	000000d7          	.4byte	0xd7
80003638:	0351                	.2byte	0x351
8000363a:	0000                	.2byte	0x0
8000363c:	000002db          	.4byte	0x2db
80003640:	0292                	.2byte	0x292
80003642:	0000                	.2byte	0x0
80003644:	02b0                	.2byte	0x2b0
80003646:	0000                	.2byte	0x0
80003648:	0000026b          	.4byte	0x26b
8000364c:	000000fb          	.4byte	0xfb
80003650:	0079                	.2byte	0x79
80003652:	0000                	.2byte	0x0
80003654:	0312                	.2byte	0x312
80003656:	0000                	.2byte	0x0
80003658:	00000083          	lb	ra,0(zero) # 0 <buf.2>
8000365c:	0000022b          	.4byte	0x22b
80003660:	033c                	.2byte	0x33c
80003662:	0000                	.2byte	0x0
80003664:	012e                	.2byte	0x12e
80003666:	0000                	.2byte	0x0
80003668:	0000029b          	.4byte	0x29b
8000366c:	0210                	.2byte	0x210
8000366e:	0000                	.2byte	0x0
80003670:	01b1                	.2byte	0x1b1
80003672:	0000                	.2byte	0x0
80003674:	0220                	.2byte	0x220
80003676:	0000                	.2byte	0x0
80003678:	000001e7          	jalr	gp,zero # 0 <buf.2>
8000367c:	0142                	.2byte	0x142
8000367e:	0000                	.2byte	0x0
80003680:	02f1                	.2byte	0x2f1
80003682:	0000                	.2byte	0x0
80003684:	000003b3          	add	t2,zero,zero
80003688:	007d                	.2byte	0x7d
8000368a:	0000                	.2byte	0x0
8000368c:	011f 0000 0272      	.byte	0x1f, 0x01, 0x00, 0x00, 0x72, 0x02
80003692:	0000                	.2byte	0x0
80003694:	0338                	.2byte	0x338
80003696:	0000                	.2byte	0x0
80003698:	000e                	.2byte	0xe
8000369a:	0000                	.2byte	0x0
8000369c:	0130                	.2byte	0x130
8000369e:	0000                	.2byte	0x0
800036a0:	000a                	.2byte	0xa
800036a2:	0000                	.2byte	0x0
800036a4:	0314                	.2byte	0x314
800036a6:	0000                	.2byte	0x0
800036a8:	00000193          	li	gp,0
800036ac:	02dd                	.2byte	0x2dd
800036ae:	0000                	.2byte	0x0
800036b0:	006a                	.2byte	0x6a
800036b2:	0000                	.2byte	0x0
800036b4:	000003bf 000002bf 	.8byte	0x2bf000003bf
800036bc:	016e                	.2byte	0x16e
800036be:	0000                	.2byte	0x0
800036c0:	0332                	.2byte	0x332
800036c2:	0000                	.2byte	0x0
800036c4:	02d2                	.2byte	0x2d2
800036c6:	0000                	.2byte	0x0
800036c8:	03c4                	.2byte	0x3c4
800036ca:	0000                	.2byte	0x0
800036cc:	0126                	.2byte	0x126
800036ce:	0000                	.2byte	0x0
800036d0:	0196                	.2byte	0x196
800036d2:	0000                	.2byte	0x0
800036d4:	000003cf          	.4byte	0x3cf
800036d8:	036a                	.2byte	0x36a
800036da:	0000                	.2byte	0x0
800036dc:	028d                	.2byte	0x28d
800036de:	0000                	.2byte	0x0
800036e0:	0358                	.2byte	0x358
800036e2:	0000                	.2byte	0x0
800036e4:	02ec                	.2byte	0x2ec
800036e6:	0000                	.2byte	0x0
800036e8:	0056                	.2byte	0x56
800036ea:	0000                	.2byte	0x0
800036ec:	0000005b          	.4byte	0x5b
800036f0:	003c                	.2byte	0x3c
800036f2:	0000                	.2byte	0x0
800036f4:	017a                	.2byte	0x17a
800036f6:	0000                	.2byte	0x0
800036f8:	0294                	.2byte	0x294
800036fa:	0000                	.2byte	0x0
800036fc:	0069                	.2byte	0x69
800036fe:	0000                	.2byte	0x0
80003700:	0000029b          	.4byte	0x29b
80003704:	0066                	.2byte	0x66
80003706:	0000                	.2byte	0x0
80003708:	0099                	.2byte	0x99
8000370a:	0000                	.2byte	0x0
8000370c:	017d                	.2byte	0x17d
8000370e:	0000                	.2byte	0x0
80003710:	0079                	.2byte	0x79
80003712:	0000                	.2byte	0x0
80003714:	0000028b          	.4byte	0x28b
80003718:	0062                	.2byte	0x62
8000371a:	0000                	.2byte	0x0
8000371c:	0339                	.2byte	0x339
8000371e:	0000                	.2byte	0x0
80003720:	019c                	.2byte	0x19c
80003722:	0000                	.2byte	0x0
80003724:	0348                	.2byte	0x348
80003726:	0000                	.2byte	0x0
80003728:	00ec                	.2byte	0xec
8000372a:	0000                	.2byte	0x0
8000372c:	0164                	.2byte	0x164
8000372e:	0000                	.2byte	0x0
80003730:	000c                	.2byte	0xc
80003732:	0000                	.2byte	0x0
80003734:	0094                	.2byte	0x94
80003736:	0000                	.2byte	0x0
80003738:	000001a7          	.4byte	0x1a7
8000373c:	0036                	.2byte	0x36
8000373e:	0000                	.2byte	0x0
80003740:	03c5                	.2byte	0x3c5
80003742:	0000                	.2byte	0x0
80003744:	008c                	.2byte	0x8c
80003746:	0000                	.2byte	0x0
80003748:	00d8                	.2byte	0xd8
8000374a:	0000                	.2byte	0x0
8000374c:	000003bb          	.4byte	0x3bb
80003750:	026d                	.2byte	0x26d
80003752:	0000                	.2byte	0x0
80003754:	00000157          	.4byte	0x157
80003758:	0169                	.2byte	0x169
8000375a:	0000                	.2byte	0x0

8000375c <verify_data>:
8000375c:	0000                	.2byte	0x0
8000375e:	0000                	.2byte	0x0
80003760:	01c6                	.2byte	0x1c6
80003762:	0000                	.2byte	0x0
80003764:	01c6                	.2byte	0x1c6
80003766:	0000                	.2byte	0x0
80003768:	0234                	.2byte	0x234
8000376a:	0000                	.2byte	0x0
8000376c:	0000014f          	.4byte	0x14f
80003770:	000000bb          	.4byte	0xbb
80003774:	000000bb          	.4byte	0xbb
80003778:	02ed                	.2byte	0x2ed
8000377a:	0000                	.2byte	0x0
8000377c:	02ed                	.2byte	0x2ed
8000377e:	0000                	.2byte	0x0
80003780:	016d                	.2byte	0x16d
80003782:	0000                	.2byte	0x0
80003784:	016d                	.2byte	0x16d
80003786:	0000                	.2byte	0x0
80003788:	015e                	.2byte	0x15e
8000378a:	0000                	.2byte	0x0
8000378c:	0084                	.2byte	0x84
8000378e:	0000                	.2byte	0x0
80003790:	0084                	.2byte	0x84
80003792:	0000                	.2byte	0x0
80003794:	0099                	.2byte	0x99
80003796:	0000                	.2byte	0x0
80003798:	0248                	.2byte	0x248
8000379a:	0000                	.2byte	0x0
8000379c:	00d8                	.2byte	0xd8
8000379e:	0000                	.2byte	0x0
800037a0:	0248                	.2byte	0x248
800037a2:	0000                	.2byte	0x0
800037a4:	00d8                	.2byte	0xd8
800037a6:	0000                	.2byte	0x0
800037a8:	026d                	.2byte	0x26d
800037aa:	0000                	.2byte	0x0
800037ac:	00d2                	.2byte	0xd2
800037ae:	0000                	.2byte	0x0
800037b0:	00d2                	.2byte	0xd2
800037b2:	0000                	.2byte	0x0
800037b4:	00d2                	.2byte	0xd2
800037b6:	0000                	.2byte	0x0
800037b8:	023c                	.2byte	0x23c
800037ba:	0000                	.2byte	0x0
800037bc:	023c                	.2byte	0x23c
800037be:	0000                	.2byte	0x0
800037c0:	037a                	.2byte	0x37a
800037c2:	0000                	.2byte	0x0
800037c4:	0251                	.2byte	0x251
800037c6:	0000                	.2byte	0x0
800037c8:	0251                	.2byte	0x251
800037ca:	0000                	.2byte	0x0
800037cc:	0251                	.2byte	0x251
800037ce:	0000                	.2byte	0x0
800037d0:	02b6                	.2byte	0x2b6
800037d2:	0000                	.2byte	0x0
800037d4:	02b6                	.2byte	0x2b6
800037d6:	0000                	.2byte	0x0
800037d8:	02b6                	.2byte	0x2b6
800037da:	0000                	.2byte	0x0
800037dc:	00e4                	.2byte	0xe4
800037de:	0000                	.2byte	0x0
800037e0:	006e                	.2byte	0x6e
800037e2:	0000                	.2byte	0x0
800037e4:	006e                	.2byte	0x6e
800037e6:	0000                	.2byte	0x0
800037e8:	0074                	.2byte	0x74
800037ea:	0000                	.2byte	0x0
800037ec:	02ee                	.2byte	0x2ee
800037ee:	0000                	.2byte	0x0
800037f0:	0128                	.2byte	0x128
800037f2:	0000                	.2byte	0x0
800037f4:	0286                	.2byte	0x286
800037f6:	0000                	.2byte	0x0
800037f8:	01aa                	.2byte	0x1aa
800037fa:	0000                	.2byte	0x0
800037fc:	01f4                	.2byte	0x1f4
800037fe:	0000                	.2byte	0x0
80003800:	01aa                	.2byte	0x1aa
80003802:	0000                	.2byte	0x0
80003804:	01b4                	.2byte	0x1b4
80003806:	0000                	.2byte	0x0
80003808:	01b4                	.2byte	0x1b4
8000380a:	0000                	.2byte	0x0
8000380c:	00000293          	li	t0,0
80003810:	02bd                	.2byte	0x2bd
80003812:	0000                	.2byte	0x0
80003814:	0306                	.2byte	0x306
80003816:	0000                	.2byte	0x0
80003818:	0306                	.2byte	0x306
8000381a:	0000                	.2byte	0x0
8000381c:	032c                	.2byte	0x32c
8000381e:	0000                	.2byte	0x0
80003820:	02a6                	.2byte	0x2a6
80003822:	0000                	.2byte	0x0
80003824:	02a6                	.2byte	0x2a6
80003826:	0000                	.2byte	0x0
80003828:	02a6                	.2byte	0x2a6
8000382a:	0000                	.2byte	0x0
8000382c:	02b8                	.2byte	0x2b8
8000382e:	0000                	.2byte	0x0
80003830:	02b8                	.2byte	0x2b8
80003832:	0000                	.2byte	0x0
80003834:	0234                	.2byte	0x234
80003836:	0000                	.2byte	0x0
80003838:	01da                	.2byte	0x1da
8000383a:	0000                	.2byte	0x0
8000383c:	01da                	.2byte	0x1da
8000383e:	0000                	.2byte	0x0
80003840:	01da                	.2byte	0x1da
80003842:	0000                	.2byte	0x0
80003844:	0110                	.2byte	0x110
80003846:	0000                	.2byte	0x0
80003848:	0000021b          	.4byte	0x21b
8000384c:	0000021b          	.4byte	0x21b
80003850:	0239                	.2byte	0x239
80003852:	0000                	.2byte	0x0
80003854:	0239                	.2byte	0x239
80003856:	0000                	.2byte	0x0
80003858:	01fd                	.2byte	0x1fd
8000385a:	0000                	.2byte	0x0
8000385c:	000000cb          	.4byte	0xcb
80003860:	000000cb          	.4byte	0xcb
80003864:	0118                	.2byte	0x118
80003866:	0000                	.2byte	0x0
80003868:	000002bf 000002bf 	.8byte	0x2bf000002bf
80003870:	029d                	.2byte	0x29d
80003872:	0000                	.2byte	0x0
80003874:	025e                	.2byte	0x25e
80003876:	0000                	.2byte	0x0
80003878:	01ff                	.2byte	0x1ff
8000387a:	0000                	.2byte	0x0
8000387c:	01ff                	.2byte	0x1ff
8000387e:	0000                	.2byte	0x0
80003880:	00000227          	.4byte	0x227
80003884:	0291                	.2byte	0x291
80003886:	0000                	.2byte	0x0
80003888:	0291                	.2byte	0x291
8000388a:	0000                	.2byte	0x0
8000388c:	0250                	.2byte	0x250
8000388e:	0000                	.2byte	0x0
80003890:	000000c3          	.4byte	0xc3
80003894:	0239                	.2byte	0x239
80003896:	0000                	.2byte	0x0
80003898:	0000010b          	.4byte	0x10b
8000389c:	0239                	.2byte	0x239
8000389e:	0000                	.2byte	0x0
800038a0:	0000010b          	.4byte	0x10b
800038a4:	0320                	.2byte	0x320
800038a6:	0000                	.2byte	0x0
800038a8:	0151                	.2byte	0x151
800038aa:	0000                	.2byte	0x0
800038ac:	0248                	.2byte	0x248
800038ae:	0000                	.2byte	0x0
800038b0:	0248                	.2byte	0x248
800038b2:	0000                	.2byte	0x0
800038b4:	00000283          	lb	t0,0(zero) # 0 <buf.2>
800038b8:	0386                	.2byte	0x386
800038ba:	0000                	.2byte	0x0
800038bc:	00000283          	lb	t0,0(zero) # 0 <buf.2>
800038c0:	0170                	.2byte	0x170
800038c2:	0000                	.2byte	0x0
800038c4:	0170                	.2byte	0x170
800038c6:	0000                	.2byte	0x0
800038c8:	01e9                	.2byte	0x1e9
800038ca:	0000                	.2byte	0x0
800038cc:	01e9                	.2byte	0x1e9
800038ce:	0000                	.2byte	0x0
800038d0:	033a                	.2byte	0x33a
800038d2:	0000                	.2byte	0x0
800038d4:	0148                	.2byte	0x148
800038d6:	0000                	.2byte	0x0
800038d8:	033a                	.2byte	0x33a
800038da:	0000                	.2byte	0x0
800038dc:	0250                	.2byte	0x250
800038de:	0000                	.2byte	0x0
800038e0:	03a5                	.2byte	0x3a5
800038e2:	0000                	.2byte	0x0
800038e4:	0250                	.2byte	0x250
800038e6:	0000                	.2byte	0x0
800038e8:	0184                	.2byte	0x184
800038ea:	0000                	.2byte	0x0
800038ec:	0184                	.2byte	0x184
800038ee:	0000                	.2byte	0x0
800038f0:	021f 0000 0289      	.byte	0x1f, 0x02, 0x00, 0x00, 0x89, 0x02
800038f6:	0000                	.2byte	0x0
800038f8:	0289                	.2byte	0x289
800038fa:	0000                	.2byte	0x0
800038fc:	0289                	.2byte	0x289
800038fe:	0000                	.2byte	0x0
80003900:	0236                	.2byte	0x236
80003902:	0000                	.2byte	0x0
80003904:	000003d3          	.4byte	0x3d3
80003908:	0289                	.2byte	0x289
8000390a:	0000                	.2byte	0x0
8000390c:	032e                	.2byte	0x32e
8000390e:	0000                	.2byte	0x0
80003910:	0291                	.2byte	0x291
80003912:	0000                	.2byte	0x0
80003914:	0291                	.2byte	0x291
80003916:	0000                	.2byte	0x0
80003918:	00b5                	.2byte	0xb5
8000391a:	0000                	.2byte	0x0
8000391c:	00b5                	.2byte	0xb5
8000391e:	0000                	.2byte	0x0
80003920:	00b5                	.2byte	0xb5
80003922:	0000                	.2byte	0x0
80003924:	00d0                	.2byte	0xd0
80003926:	0000                	.2byte	0x0
80003928:	0000035b          	.4byte	0x35b
8000392c:	0000035b          	.4byte	0x35b
80003930:	0275                	.2byte	0x275
80003932:	0000                	.2byte	0x0
80003934:	0275                	.2byte	0x275
80003936:	0000                	.2byte	0x0
80003938:	0120                	.2byte	0x120
8000393a:	0000                	.2byte	0x0
8000393c:	02c0                	.2byte	0x2c0
8000393e:	0000                	.2byte	0x0
80003940:	015d                	.2byte	0x15d
80003942:	0000                	.2byte	0x0
80003944:	02c0                	.2byte	0x2c0
80003946:	0000                	.2byte	0x0
80003948:	015d                	.2byte	0x15d
8000394a:	0000                	.2byte	0x0
8000394c:	00fd                	.2byte	0xfd
8000394e:	0000                	.2byte	0x0
80003950:	00fd                	.2byte	0xfd
80003952:	0000                	.2byte	0x0
80003954:	000002cb          	.4byte	0x2cb
80003958:	0376                	.2byte	0x376
8000395a:	0000                	.2byte	0x0
8000395c:	000002cb          	.4byte	0x2cb
80003960:	01ae                	.2byte	0x1ae
80003962:	0000                	.2byte	0x0
80003964:	019f 0000 019f      	.byte	0x9f, 0x01, 0x00, 0x00, 0x9f, 0x01
8000396a:	0000                	.2byte	0x0
8000396c:	021a                	.2byte	0x21a
8000396e:	0000                	.2byte	0x0
80003970:	0240                	.2byte	0x240
80003972:	0000                	.2byte	0x0
80003974:	02bc                	.2byte	0x2bc
80003976:	0000                	.2byte	0x0
80003978:	02f9                	.2byte	0x2f9
8000397a:	0000                	.2byte	0x0
8000397c:	02bc                	.2byte	0x2bc
8000397e:	0000                	.2byte	0x0
80003980:	00f1                	.2byte	0xf1
80003982:	0000                	.2byte	0x0
80003984:	00f1                	.2byte	0xf1
80003986:	0000                	.2byte	0x0
80003988:	01de                	.2byte	0x1de
8000398a:	0000                	.2byte	0x0
8000398c:	01de                	.2byte	0x1de
8000398e:	0000                	.2byte	0x0
80003990:	01de                	.2byte	0x1de
80003992:	0000                	.2byte	0x0
80003994:	000001f3          	.4byte	0x1f3
80003998:	000001f3          	.4byte	0x1f3
8000399c:	02b5                	.2byte	0x2b5
8000399e:	0000                	.2byte	0x0
800039a0:	00000193          	li	gp,0
800039a4:	01a0                	.2byte	0x1a0
800039a6:	0000                	.2byte	0x0
800039a8:	01a0                	.2byte	0x1a0
800039aa:	0000                	.2byte	0x0
800039ac:	01a0                	.2byte	0x1a0
800039ae:	0000                	.2byte	0x0
800039b0:	01bc                	.2byte	0x1bc
800039b2:	0000                	.2byte	0x0
800039b4:	0128                	.2byte	0x128
800039b6:	0000                	.2byte	0x0
800039b8:	02a4                	.2byte	0x2a4
800039ba:	0000                	.2byte	0x0
800039bc:	026c                	.2byte	0x26c
800039be:	0000                	.2byte	0x0
800039c0:	026c                	.2byte	0x26c
800039c2:	0000                	.2byte	0x0
800039c4:	013d                	.2byte	0x13d
800039c6:	0000                	.2byte	0x0
800039c8:	00e0                	.2byte	0xe0
800039ca:	0000                	.2byte	0x0
800039cc:	00e0                	.2byte	0xe0
800039ce:	0000                	.2byte	0x0
800039d0:	015f 0000 021c      	.byte	0x5f, 0x01, 0x00, 0x00, 0x1c, 0x02
800039d6:	0000                	.2byte	0x0
800039d8:	021c                	.2byte	0x21c
800039da:	0000                	.2byte	0x0
800039dc:	021c                	.2byte	0x21c
800039de:	0000                	.2byte	0x0
800039e0:	0120                	.2byte	0x120
800039e2:	0000                	.2byte	0x0
800039e4:	00a9                	.2byte	0xa9
800039e6:	0000                	.2byte	0x0
800039e8:	00a9                	.2byte	0xa9
800039ea:	0000                	.2byte	0x0
800039ec:	0000020f          	.4byte	0x20f
800039f0:	025e                	.2byte	0x25e
800039f2:	0000                	.2byte	0x0
800039f4:	0000020f          	.4byte	0x20f
800039f8:	0185                	.2byte	0x185
800039fa:	0000                	.2byte	0x0
800039fc:	0185                	.2byte	0x185
800039fe:	0000                	.2byte	0x0
80003a00:	0185                	.2byte	0x185
80003a02:	0000                	.2byte	0x0
80003a04:	031c                	.2byte	0x31c
80003a06:	0000                	.2byte	0x0
80003a08:	000001c7          	.4byte	0x1c7
80003a0c:	02d0                	.2byte	0x2d0
80003a0e:	0000                	.2byte	0x0
80003a10:	000001c7          	.4byte	0x1c7
80003a14:	02d0                	.2byte	0x2d0
80003a16:	0000                	.2byte	0x0
80003a18:	0000016f          	jal	sp,80003a18 <verify_data+0x2bc>
80003a1c:	02e9                	.2byte	0x2e9
80003a1e:	0000                	.2byte	0x0
80003a20:	0000016f          	jal	sp,80003a20 <verify_data+0x2c4>
80003a24:	0166                	.2byte	0x166
80003a26:	0000                	.2byte	0x0
80003a28:	0166                	.2byte	0x166
80003a2a:	0000                	.2byte	0x0
80003a2c:	0248                	.2byte	0x248
80003a2e:	0000                	.2byte	0x0
80003a30:	0248                	.2byte	0x248
80003a32:	0000                	.2byte	0x0
80003a34:	0000010f          	.4byte	0x10f
80003a38:	0000010f          	.4byte	0x10f
80003a3c:	0355                	.2byte	0x355
80003a3e:	0000                	.2byte	0x0
80003a40:	0355                	.2byte	0x355
80003a42:	0000                	.2byte	0x0
80003a44:	0314                	.2byte	0x314
80003a46:	0000                	.2byte	0x0
80003a48:	00000193          	li	gp,0
80003a4c:	00000213          	li	tp,0
80003a50:	0205                	.2byte	0x205
80003a52:	0000                	.2byte	0x0
80003a54:	0205                	.2byte	0x205
80003a56:	0000                	.2byte	0x0
80003a58:	0205                	.2byte	0x205
80003a5a:	0000                	.2byte	0x0
80003a5c:	01cd                	.2byte	0x1cd
80003a5e:	0000                	.2byte	0x0
80003a60:	0000022f          	.4byte	0x22f
80003a64:	01cd                	.2byte	0x1cd
80003a66:	0000                	.2byte	0x0
80003a68:	00000307          	.4byte	0x307
80003a6c:	0166                	.2byte	0x166
80003a6e:	0000                	.2byte	0x0
80003a70:	0166                	.2byte	0x166
80003a72:	0000                	.2byte	0x0
80003a74:	014c                	.2byte	0x14c
80003a76:	0000                	.2byte	0x0
80003a78:	014c                	.2byte	0x14c
80003a7a:	0000                	.2byte	0x0
80003a7c:	02ac                	.2byte	0x2ac
80003a7e:	0000                	.2byte	0x0
80003a80:	02ac                	.2byte	0x2ac
80003a82:	0000                	.2byte	0x0
80003a84:	02ac                	.2byte	0x2ac
80003a86:	0000                	.2byte	0x0
80003a88:	0256                	.2byte	0x256
80003a8a:	0000                	.2byte	0x0
80003a8c:	01be                	.2byte	0x1be
80003a8e:	0000                	.2byte	0x0
80003a90:	0000008f          	.4byte	0x8f
80003a94:	00000137          	lui	sp,0x0
80003a98:	007d                	.2byte	0x7d
80003a9a:	0000                	.2byte	0x0
80003a9c:	00000137          	lui	sp,0x0
80003aa0:	000002e7          	jalr	t0,zero # 0 <buf.2>
80003aa4:	000002e7          	jalr	t0,zero # 0 <buf.2>
80003aa8:	03a5                	.2byte	0x3a5
80003aaa:	0000                	.2byte	0x0
80003aac:	022d                	.2byte	0x22d
80003aae:	0000                	.2byte	0x0
80003ab0:	031f 0000 022d      	.byte	0x1f, 0x03, 0x00, 0x00, 0x2d, 0x02
80003ab6:	0000                	.2byte	0x0
80003ab8:	022d                	.2byte	0x22d
80003aba:	0000                	.2byte	0x0
80003abc:	022d                	.2byte	0x22d
80003abe:	0000                	.2byte	0x0
80003ac0:	0229                	.2byte	0x229
80003ac2:	0000                	.2byte	0x0
80003ac4:	031c                	.2byte	0x31c
80003ac6:	0000                	.2byte	0x0
80003ac8:	0288                	.2byte	0x288
80003aca:	0000                	.2byte	0x0
80003acc:	0288                	.2byte	0x288
80003ace:	0000                	.2byte	0x0
80003ad0:	0288                	.2byte	0x288
80003ad2:	0000                	.2byte	0x0
80003ad4:	0000037b          	.4byte	0x37b
80003ad8:	0000037b          	.4byte	0x37b
80003adc:	029a                	.2byte	0x29a
80003ade:	0000                	.2byte	0x0
80003ae0:	011f 0000 0202      	.byte	0x1f, 0x01, 0x00, 0x00, 0x02, 0x02
80003ae6:	0000                	.2byte	0x0
80003ae8:	0031                	.2byte	0x31
80003aea:	0000                	.2byte	0x0
80003aec:	0202                	.2byte	0x202
80003aee:	0000                	.2byte	0x0
80003af0:	0056                	.2byte	0x56
80003af2:	0000                	.2byte	0x0
80003af4:	022d                	.2byte	0x22d
80003af6:	0000                	.2byte	0x0
80003af8:	005f 0000 0355      	.byte	0x5f, 0x00, 0x00, 0x00, 0x55, 0x03
80003afe:	0000                	.2byte	0x0
80003b00:	01b9                	.2byte	0x1b9
80003b02:	0000                	.2byte	0x0
80003b04:	01b9                	.2byte	0x1b9
80003b06:	0000                	.2byte	0x0
80003b08:	01b9                	.2byte	0x1b9
80003b0a:	0000                	.2byte	0x0
80003b0c:	01b8                	.2byte	0x1b8
80003b0e:	0000                	.2byte	0x0
80003b10:	0000024b          	.4byte	0x24b
80003b14:	0266                	.2byte	0x266
80003b16:	0000                	.2byte	0x0
80003b18:	0266                	.2byte	0x266
80003b1a:	0000                	.2byte	0x0
80003b1c:	018c                	.2byte	0x18c
80003b1e:	0000                	.2byte	0x0
80003b20:	017e                	.2byte	0x17e
80003b22:	0000                	.2byte	0x0
80003b24:	0118                	.2byte	0x118
80003b26:	0000                	.2byte	0x0
80003b28:	0118                	.2byte	0x118
80003b2a:	0000                	.2byte	0x0
80003b2c:	0011                	.2byte	0x11
80003b2e:	0000                	.2byte	0x0
80003b30:	0328                	.2byte	0x328
80003b32:	0000                	.2byte	0x0
80003b34:	00aa                	.2byte	0xaa
80003b36:	0000                	.2byte	0x0
80003b38:	00000333          	add	t1,zero,zero
80003b3c:	00000123          	sb	zero,2(zero) # 2 <buf.2+0x2>
80003b40:	0158                	.2byte	0x158
80003b42:	0000                	.2byte	0x0
80003b44:	0158                	.2byte	0x158
80003b46:	0000                	.2byte	0x0
80003b48:	017c                	.2byte	0x17c
80003b4a:	0000                	.2byte	0x0
80003b4c:	01c2                	.2byte	0x1c2
80003b4e:	0000                	.2byte	0x0
80003b50:	0200                	.2byte	0x200
80003b52:	0000                	.2byte	0x0
80003b54:	0200                	.2byte	0x200
80003b56:	0000                	.2byte	0x0
80003b58:	0200                	.2byte	0x200
80003b5a:	0000                	.2byte	0x0
80003b5c:	0395                	.2byte	0x395
80003b5e:	0000                	.2byte	0x0
80003b60:	0395                	.2byte	0x395
80003b62:	0000                	.2byte	0x0
80003b64:	0000021b          	.4byte	0x21b
80003b68:	0000021b          	.4byte	0x21b
80003b6c:	0328                	.2byte	0x328
80003b6e:	0000                	.2byte	0x0
80003b70:	0372                	.2byte	0x372
80003b72:	0000                	.2byte	0x0
80003b74:	00000377          	.4byte	0x377
80003b78:	0372                	.2byte	0x372
80003b7a:	0000                	.2byte	0x0
80003b7c:	0219                	.2byte	0x219
80003b7e:	0000                	.2byte	0x0
80003b80:	0219                	.2byte	0x219
80003b82:	0000                	.2byte	0x0
80003b84:	0264                	.2byte	0x264
80003b86:	0000                	.2byte	0x0
80003b88:	02bd                	.2byte	0x2bd
80003b8a:	0000                	.2byte	0x0
80003b8c:	02bd                	.2byte	0x2bd
80003b8e:	0000                	.2byte	0x0
80003b90:	02bd                	.2byte	0x2bd
80003b92:	0000                	.2byte	0x0
80003b94:	01df 0000 01df      	.byte	0xdf, 0x01, 0x00, 0x00, 0xdf, 0x01
80003b9a:	0000                	.2byte	0x0
80003b9c:	01df 0000 0237      	.byte	0xdf, 0x01, 0x00, 0x00, 0x37, 0x02
80003ba2:	0000                	.2byte	0x0
80003ba4:	00000097          	auipc	ra,0x0
80003ba8:	0016                	.2byte	0x16
80003baa:	0000                	.2byte	0x0
80003bac:	0016                	.2byte	0x16
80003bae:	0000                	.2byte	0x0
80003bb0:	0238                	.2byte	0x238
80003bb2:	0000                	.2byte	0x0
80003bb4:	0238                	.2byte	0x238
80003bb6:	0000                	.2byte	0x0
80003bb8:	0238                	.2byte	0x238
80003bba:	0000                	.2byte	0x0
80003bbc:	0299                	.2byte	0x299
80003bbe:	0000                	.2byte	0x0
80003bc0:	0299                	.2byte	0x299
80003bc2:	0000                	.2byte	0x0
80003bc4:	000001a7          	.4byte	0x1a7
80003bc8:	000001a7          	.4byte	0x1a7
80003bcc:	01b2                	.2byte	0x1b2
80003bce:	0000                	.2byte	0x0
80003bd0:	01b2                	.2byte	0x1b2
80003bd2:	0000                	.2byte	0x0
80003bd4:	0118                	.2byte	0x118
80003bd6:	0000                	.2byte	0x0
80003bd8:	009e                	.2byte	0x9e
80003bda:	0000                	.2byte	0x0
80003bdc:	0118                	.2byte	0x118
80003bde:	0000                	.2byte	0x0
80003be0:	0054                	.2byte	0x54
80003be2:	0000                	.2byte	0x0
80003be4:	0000018b          	.4byte	0x18b
80003be8:	000000f7          	.4byte	0xf7
80003bec:	02b0                	.2byte	0x2b0
80003bee:	0000                	.2byte	0x0
80003bf0:	000000f7          	.4byte	0xf7
80003bf4:	01dc                	.2byte	0x1dc
80003bf6:	0000                	.2byte	0x0
80003bf8:	000001b3          	add	gp,zero,zero
80003bfc:	01dc                	.2byte	0x1dc
80003bfe:	0000                	.2byte	0x0
80003c00:	0318                	.2byte	0x318
80003c02:	0000                	.2byte	0x0
80003c04:	0318                	.2byte	0x318
80003c06:	0000                	.2byte	0x0
80003c08:	0318                	.2byte	0x318
80003c0a:	0000                	.2byte	0x0
80003c0c:	02d9                	.2byte	0x2d9
80003c0e:	0000                	.2byte	0x0
80003c10:	01e6                	.2byte	0x1e6
80003c12:	0000                	.2byte	0x0
80003c14:	0109                	.2byte	0x109
80003c16:	0000                	.2byte	0x0
80003c18:	019e                	.2byte	0x19e
80003c1a:	0000                	.2byte	0x0
80003c1c:	00ec                	.2byte	0xec
80003c1e:	0000                	.2byte	0x0
80003c20:	0171                	.2byte	0x171
80003c22:	0000                	.2byte	0x0
80003c24:	00ec                	.2byte	0xec
80003c26:	0000                	.2byte	0x0
80003c28:	0171                	.2byte	0x171
80003c2a:	0000                	.2byte	0x0
80003c2c:	00d6                	.2byte	0xd6
80003c2e:	0000                	.2byte	0x0
80003c30:	0206                	.2byte	0x206
80003c32:	0000                	.2byte	0x0
80003c34:	00b4                	.2byte	0xb4
80003c36:	0000                	.2byte	0x0
80003c38:	0206                	.2byte	0x206
80003c3a:	0000                	.2byte	0x0
80003c3c:	000001f7          	.4byte	0x1f7
80003c40:	02aa                	.2byte	0x2aa
80003c42:	0000                	.2byte	0x0
80003c44:	0254                	.2byte	0x254
80003c46:	0000                	.2byte	0x0
80003c48:	0254                	.2byte	0x254
80003c4a:	0000                	.2byte	0x0
80003c4c:	011c                	.2byte	0x11c
80003c4e:	0000                	.2byte	0x0
80003c50:	0108                	.2byte	0x108
80003c52:	0000                	.2byte	0x0
80003c54:	0108                	.2byte	0x108
80003c56:	0000                	.2byte	0x0
80003c58:	000001f3          	.4byte	0x1f3
80003c5c:	000001f3          	.4byte	0x1f3
80003c60:	015a                	.2byte	0x15a
80003c62:	0000                	.2byte	0x0
80003c64:	015a                	.2byte	0x15a
80003c66:	0000                	.2byte	0x0
80003c68:	00000257          	.4byte	0x257
80003c6c:	00000257          	.4byte	0x257
80003c70:	000000d7          	.4byte	0xd7
80003c74:	000000d7          	.4byte	0xd7
80003c78:	000002db          	.4byte	0x2db
80003c7c:	000002db          	.4byte	0x2db
80003c80:	02b0                	.2byte	0x2b0
80003c82:	0000                	.2byte	0x0
80003c84:	0292                	.2byte	0x292
80003c86:	0000                	.2byte	0x0
80003c88:	0000026b          	.4byte	0x26b
80003c8c:	000000fb          	.4byte	0xfb
80003c90:	000000fb          	.4byte	0xfb
80003c94:	00000083          	lb	ra,0(zero) # 0 <buf.2>
80003c98:	0000022b          	.4byte	0x22b
80003c9c:	0000022b          	.4byte	0x22b
80003ca0:	0000022b          	.4byte	0x22b
80003ca4:	0000029b          	.4byte	0x29b
80003ca8:	0210                	.2byte	0x210
80003caa:	0000                	.2byte	0x0
80003cac:	0210                	.2byte	0x210
80003cae:	0000                	.2byte	0x0
80003cb0:	0210                	.2byte	0x210
80003cb2:	0000                	.2byte	0x0
80003cb4:	000001e7          	jalr	gp,zero # 0 <buf.2>
80003cb8:	000001e7          	jalr	gp,zero # 0 <buf.2>
80003cbc:	000001e7          	jalr	gp,zero # 0 <buf.2>
80003cc0:	02f1                	.2byte	0x2f1
80003cc2:	0000                	.2byte	0x0
80003cc4:	02f1                	.2byte	0x2f1
80003cc6:	0000                	.2byte	0x0
80003cc8:	011f 0000 011f      	.byte	0x1f, 0x01, 0x00, 0x00, 0x1f, 0x01
80003cce:	0000                	.2byte	0x0
80003cd0:	0272                	.2byte	0x272
80003cd2:	0000                	.2byte	0x0
80003cd4:	0272                	.2byte	0x272
80003cd6:	0000                	.2byte	0x0
80003cd8:	0130                	.2byte	0x130
80003cda:	0000                	.2byte	0x0
80003cdc:	000e                	.2byte	0xe
80003cde:	0000                	.2byte	0x0
80003ce0:	0130                	.2byte	0x130
80003ce2:	0000                	.2byte	0x0
80003ce4:	00000193          	li	gp,0
80003ce8:	02dd                	.2byte	0x2dd
80003cea:	0000                	.2byte	0x0
80003cec:	00000193          	li	gp,0
80003cf0:	02dd                	.2byte	0x2dd
80003cf2:	0000                	.2byte	0x0
80003cf4:	000002bf 000002bf 	.8byte	0x2bf000002bf
80003cfc:	000002bf 000002d2 	.8byte	0x2d2000002bf
80003d04:	0332                	.2byte	0x332
80003d06:	0000                	.2byte	0x0
80003d08:	02d2                	.2byte	0x2d2
80003d0a:	0000                	.2byte	0x0
80003d0c:	0196                	.2byte	0x196
80003d0e:	0000                	.2byte	0x0
80003d10:	0196                	.2byte	0x196
80003d12:	0000                	.2byte	0x0
80003d14:	036a                	.2byte	0x36a
80003d16:	0000                	.2byte	0x0
80003d18:	036a                	.2byte	0x36a
80003d1a:	0000                	.2byte	0x0
80003d1c:	0358                	.2byte	0x358
80003d1e:	0000                	.2byte	0x0
80003d20:	02ec                	.2byte	0x2ec
80003d22:	0000                	.2byte	0x0
80003d24:	02ec                	.2byte	0x2ec
80003d26:	0000                	.2byte	0x0
80003d28:	0000005b          	.4byte	0x5b
80003d2c:	0056                	.2byte	0x56
80003d2e:	0000                	.2byte	0x0
80003d30:	0000005b          	.4byte	0x5b
80003d34:	017a                	.2byte	0x17a
80003d36:	0000                	.2byte	0x0
80003d38:	017a                	.2byte	0x17a
80003d3a:	0000                	.2byte	0x0
80003d3c:	0294                	.2byte	0x294
80003d3e:	0000                	.2byte	0x0
80003d40:	0069                	.2byte	0x69
80003d42:	0000                	.2byte	0x0
80003d44:	0099                	.2byte	0x99
80003d46:	0000                	.2byte	0x0
80003d48:	0099                	.2byte	0x99
80003d4a:	0000                	.2byte	0x0
80003d4c:	0099                	.2byte	0x99
80003d4e:	0000                	.2byte	0x0
80003d50:	017d                	.2byte	0x17d
80003d52:	0000                	.2byte	0x0
80003d54:	0079                	.2byte	0x79
80003d56:	0000                	.2byte	0x0
80003d58:	0000028b          	.4byte	0x28b
80003d5c:	019c                	.2byte	0x19c
80003d5e:	0000                	.2byte	0x0
80003d60:	0339                	.2byte	0x339
80003d62:	0000                	.2byte	0x0
80003d64:	019c                	.2byte	0x19c
80003d66:	0000                	.2byte	0x0
80003d68:	0164                	.2byte	0x164
80003d6a:	0000                	.2byte	0x0
80003d6c:	00ec                	.2byte	0xec
80003d6e:	0000                	.2byte	0x0
80003d70:	0094                	.2byte	0x94
80003d72:	0000                	.2byte	0x0
80003d74:	0094                	.2byte	0x94
80003d76:	0000                	.2byte	0x0
80003d78:	0094                	.2byte	0x94
80003d7a:	0000                	.2byte	0x0
80003d7c:	000001a7          	.4byte	0x1a7
80003d80:	008c                	.2byte	0x8c
80003d82:	0000                	.2byte	0x0
80003d84:	00d8                	.2byte	0xd8
80003d86:	0000                	.2byte	0x0
80003d88:	00d8                	.2byte	0xd8
80003d8a:	0000                	.2byte	0x0
80003d8c:	026d                	.2byte	0x26d
80003d8e:	0000                	.2byte	0x0
80003d90:	026d                	.2byte	0x26d
80003d92:	0000                	.2byte	0x0
80003d94:	0169                	.2byte	0x169
80003d96:	0000                	.2byte	0x0
80003d98:	0000                	.2byte	0x0
80003d9a:	0000                	.2byte	0x0
