
median.riscv:     file format elf32-littleriscv


Disassembly of section .text.init:

00001200 <_start>:
    1200:	00000093          	li	ra,0
    1204:	00000113          	li	sp,0
    1208:	00000193          	li	gp,0
    120c:	00000213          	li	tp,0
    1210:	00000293          	li	t0,0
    1214:	00000313          	li	t1,0
    1218:	00000393          	li	t2,0
    121c:	00000413          	li	s0,0
    1220:	00000493          	li	s1,0
    1224:	00000513          	li	a0,0
    1228:	00000593          	li	a1,0
    122c:	00000613          	li	a2,0
    1230:	00000693          	li	a3,0
    1234:	00000713          	li	a4,0
    1238:	00000793          	li	a5,0
    123c:	00000813          	li	a6,0
    1240:	00000893          	li	a7,0
    1244:	00000913          	li	s2,0
    1248:	00000993          	li	s3,0
    124c:	00000a13          	li	s4,0
    1250:	00000a93          	li	s5,0
    1254:	00000b13          	li	s6,0
    1258:	00000b93          	li	s7,0
    125c:	00000c13          	li	s8,0
    1260:	00000c93          	li	s9,0
    1264:	00000d13          	li	s10,0
    1268:	00000d93          	li	s11,0
    126c:	00000e13          	li	t3,0
    1270:	00000e93          	li	t4,0
    1274:	00000f13          	li	t5,0
    1278:	00000f93          	li	t6,0
    127c:	0001e2b7          	lui	t0,0x1e
    1280:	3002a073          	csrs	mstatus,t0
    1284:	00100293          	li	t0,1
    1288:	01f29293          	slli	t0,t0,0x1f
    128c:	0002ca63          	bltz	t0,12a0 <_start+0xa0>
    1290:	00100513          	li	a0,1
    1294:	0000e297          	auipc	t0,0xe
    1298:	d6a2a623          	sw	a0,-660(t0) # f000 <tohost>
    129c:	ff5ff06f          	j	1290 <_start+0x90>
    12a0:	00000297          	auipc	t0,0x0
    12a4:	04028293          	addi	t0,t0,64 # 12e0 <trap_entry>
    12a8:	30529073          	csrw	mtvec,t0
    12ac:	00004197          	auipc	gp,0x4
    12b0:	31c18193          	addi	gp,gp,796 # 55c8 <__global_pointer$>
    12b4:	87718213          	addi	tp,gp,-1929 # 4e3f <_end+0x3f>
    12b8:	fc027213          	andi	tp,tp,-64
    12bc:	f1402573          	csrr	a0,mhartid
    12c0:	00100593          	li	a1,1
    12c4:	00b57063          	bgeu	a0,a1,12c4 <_start+0xc4>
    12c8:	00150113          	addi	sp,a0,1
    12cc:	01111113          	slli	sp,sp,0x11
    12d0:	00410133          	add	sp,sp,tp
    12d4:	01151613          	slli	a2,a0,0x11
    12d8:	00c20233          	add	tp,tp,a2
    12dc:	6dc0106f          	j	29b8 <_init>

000012e0 <trap_entry>:
    12e0:	ef010113          	addi	sp,sp,-272
    12e4:	00112223          	sw	ra,4(sp)
    12e8:	00212423          	sw	sp,8(sp)
    12ec:	00312623          	sw	gp,12(sp)
    12f0:	00412823          	sw	tp,16(sp)
    12f4:	00512a23          	sw	t0,20(sp)
    12f8:	00612c23          	sw	t1,24(sp)
    12fc:	00712e23          	sw	t2,28(sp)
    1300:	02812023          	sw	s0,32(sp)
    1304:	02912223          	sw	s1,36(sp)
    1308:	02a12423          	sw	a0,40(sp)
    130c:	02b12623          	sw	a1,44(sp)
    1310:	02c12823          	sw	a2,48(sp)
    1314:	02d12a23          	sw	a3,52(sp)
    1318:	02e12c23          	sw	a4,56(sp)
    131c:	02f12e23          	sw	a5,60(sp)
    1320:	05012023          	sw	a6,64(sp)
    1324:	05112223          	sw	a7,68(sp)
    1328:	05212423          	sw	s2,72(sp)
    132c:	05312623          	sw	s3,76(sp)
    1330:	05412823          	sw	s4,80(sp)
    1334:	05512a23          	sw	s5,84(sp)
    1338:	05612c23          	sw	s6,88(sp)
    133c:	05712e23          	sw	s7,92(sp)
    1340:	07812023          	sw	s8,96(sp)
    1344:	07912223          	sw	s9,100(sp)
    1348:	07a12423          	sw	s10,104(sp)
    134c:	07b12623          	sw	s11,108(sp)
    1350:	07c12823          	sw	t3,112(sp)
    1354:	07d12a23          	sw	t4,116(sp)
    1358:	07e12c23          	sw	t5,120(sp)
    135c:	07f12e23          	sw	t6,124(sp)
    1360:	34202573          	csrr	a0,mcause
    1364:	341025f3          	csrr	a1,mepc
    1368:	00010613          	mv	a2,sp
    136c:	350010ef          	jal	ra,26bc <handle_trap>
    1370:	34151073          	csrw	mepc,a0
    1374:	000022b7          	lui	t0,0x2
    1378:	80028293          	addi	t0,t0,-2048 # 1800 <trap_entry+0x520>
    137c:	3002a073          	csrs	mstatus,t0
    1380:	00412083          	lw	ra,4(sp)
    1384:	00812103          	lw	sp,8(sp)
    1388:	00c12183          	lw	gp,12(sp)
    138c:	01012203          	lw	tp,16(sp)
    1390:	01412283          	lw	t0,20(sp)
    1394:	01812303          	lw	t1,24(sp)
    1398:	01c12383          	lw	t2,28(sp)
    139c:	02012403          	lw	s0,32(sp)
    13a0:	02412483          	lw	s1,36(sp)
    13a4:	02812503          	lw	a0,40(sp)
    13a8:	02c12583          	lw	a1,44(sp)
    13ac:	03012603          	lw	a2,48(sp)
    13b0:	03412683          	lw	a3,52(sp)
    13b4:	03812703          	lw	a4,56(sp)
    13b8:	03c12783          	lw	a5,60(sp)
    13bc:	04012803          	lw	a6,64(sp)
    13c0:	04412883          	lw	a7,68(sp)
    13c4:	04812903          	lw	s2,72(sp)
    13c8:	04c12983          	lw	s3,76(sp)
    13cc:	05012a03          	lw	s4,80(sp)
    13d0:	05412a83          	lw	s5,84(sp)
    13d4:	05812b03          	lw	s6,88(sp)
    13d8:	05c12b83          	lw	s7,92(sp)
    13dc:	06012c03          	lw	s8,96(sp)
    13e0:	06412c83          	lw	s9,100(sp)
    13e4:	06812d03          	lw	s10,104(sp)
    13e8:	06c12d83          	lw	s11,108(sp)
    13ec:	07012e03          	lw	t3,112(sp)
    13f0:	07412e83          	lw	t4,116(sp)
    13f4:	07812f03          	lw	t5,120(sp)
    13f8:	07c12f83          	lw	t6,124(sp)
    13fc:	11010113          	addi	sp,sp,272
    1400:	30200073          	mret

Disassembly of section .text:

00002000 <median>:
    2000:	00251793          	slli	a5,a0,0x2
    2004:	ffc78793          	addi	a5,a5,-4
    2008:	00f60733          	add	a4,a2,a5
    200c:	00062023          	sw	zero,0(a2)
    2010:	00072023          	sw	zero,0(a4)
    2014:	00200713          	li	a4,2
    2018:	02a75e63          	bge	a4,a0,2054 <median+0x54>
    201c:	00b78533          	add	a0,a5,a1
    2020:	00460613          	addi	a2,a2,4
    2024:	ffc50513          	addi	a0,a0,-4
    2028:	0045a783          	lw	a5,4(a1)
    202c:	0005a703          	lw	a4,0(a1)
    2030:	0085a683          	lw	a3,8(a1)
    2034:	02f75e63          	bge	a4,a5,2070 <median+0x70>
    2038:	00d7c663          	blt	a5,a3,2044 <median+0x44>
    203c:	00068793          	mv	a5,a3
    2040:	00e6cc63          	blt	a3,a4,2058 <median+0x58>
    2044:	00f62023          	sw	a5,0(a2)
    2048:	00458593          	addi	a1,a1,4
    204c:	00460613          	addi	a2,a2,4
    2050:	fca59ce3          	bne	a1,a0,2028 <median+0x28>
    2054:	00008067          	ret
    2058:	00070793          	mv	a5,a4
    205c:	00f62023          	sw	a5,0(a2)
    2060:	00458593          	addi	a1,a1,4
    2064:	00460613          	addi	a2,a2,4
    2068:	fca590e3          	bne	a1,a0,2028 <median+0x28>
    206c:	fe9ff06f          	j	2054 <median+0x54>
    2070:	fed744e3          	blt	a4,a3,2058 <median+0x58>
    2074:	fcd7d8e3          	bge	a5,a3,2044 <median+0x44>
    2078:	00068793          	mv	a5,a3
    207c:	00f62023          	sw	a5,0(a2)
    2080:	00458593          	addi	a1,a1,4
    2084:	00460613          	addi	a2,a2,4
    2088:	faa590e3          	bne	a1,a0,2028 <median+0x28>
    208c:	fc9ff06f          	j	2054 <median+0x54>

00002090 <vprintfmt>:
    2090:	eb010113          	addi	sp,sp,-336
    2094:	14812423          	sw	s0,328(sp)
    2098:	15212023          	sw	s2,320(sp)
    209c:	13312e23          	sw	s3,316(sp)
    20a0:	13412c23          	sw	s4,312(sp)
    20a4:	14112623          	sw	ra,332(sp)
    20a8:	14912223          	sw	s1,324(sp)
    20ac:	13512a23          	sw	s5,308(sp)
    20b0:	13612823          	sw	s6,304(sp)
    20b4:	13712623          	sw	s7,300(sp)
    20b8:	13812423          	sw	s8,296(sp)
    20bc:	13912223          	sw	s9,292(sp)
    20c0:	13a12023          	sw	s10,288(sp)
    20c4:	11b12e23          	sw	s11,284(sp)
    20c8:	00050993          	mv	s3,a0
    20cc:	00058913          	mv	s2,a1
    20d0:	00060413          	mv	s0,a2
    20d4:	00d12623          	sw	a3,12(sp)
    20d8:	02500a13          	li	s4,37
    20dc:	0140006f          	j	20f0 <vprintfmt+0x60>
    20e0:	06050463          	beqz	a0,2148 <vprintfmt+0xb8>
    20e4:	00090593          	mv	a1,s2
    20e8:	00140413          	addi	s0,s0,1
    20ec:	000980e7          	jalr	s3
    20f0:	00044503          	lbu	a0,0(s0)
    20f4:	ff4516e3          	bne	a0,s4,20e0 <vprintfmt+0x50>
    20f8:	00144683          	lbu	a3,1(s0)
    20fc:	00140a93          	addi	s5,s0,1
    2100:	02000793          	li	a5,32
    2104:	000a8713          	mv	a4,s5
    2108:	00f12423          	sw	a5,8(sp)
    210c:	fff00493          	li	s1,-1
    2110:	fff00b13          	li	s6,-1
    2114:	00000593          	li	a1,0
    2118:	fdd68793          	addi	a5,a3,-35
    211c:	0ff7f793          	zext.b	a5,a5
    2120:	05500613          	li	a2,85
    2124:	00170413          	addi	s0,a4,1
    2128:	06f66e63          	bltu	a2,a5,21a4 <vprintfmt+0x114>
    212c:	00002617          	auipc	a2,0x2
    2130:	cc060613          	addi	a2,a2,-832 # 3dec <main+0xfc>
    2134:	00279793          	slli	a5,a5,0x2
    2138:	00c787b3          	add	a5,a5,a2
    213c:	0007a783          	lw	a5,0(a5)
    2140:	00c787b3          	add	a5,a5,a2
    2144:	00078067          	jr	a5
    2148:	14c12083          	lw	ra,332(sp)
    214c:	14812403          	lw	s0,328(sp)
    2150:	14412483          	lw	s1,324(sp)
    2154:	14012903          	lw	s2,320(sp)
    2158:	13c12983          	lw	s3,316(sp)
    215c:	13812a03          	lw	s4,312(sp)
    2160:	13412a83          	lw	s5,308(sp)
    2164:	13012b03          	lw	s6,304(sp)
    2168:	12c12b83          	lw	s7,300(sp)
    216c:	12812c03          	lw	s8,296(sp)
    2170:	12412c83          	lw	s9,292(sp)
    2174:	12012d03          	lw	s10,288(sp)
    2178:	11c12d83          	lw	s11,284(sp)
    217c:	15010113          	addi	sp,sp,336
    2180:	00008067          	ret
    2184:	00d12423          	sw	a3,8(sp)
    2188:	00174683          	lbu	a3,1(a4)
    218c:	05500613          	li	a2,85
    2190:	00040713          	mv	a4,s0
    2194:	fdd68793          	addi	a5,a3,-35
    2198:	0ff7f793          	zext.b	a5,a5
    219c:	00170413          	addi	s0,a4,1
    21a0:	f8f676e3          	bgeu	a2,a5,212c <vprintfmt+0x9c>
    21a4:	00090593          	mv	a1,s2
    21a8:	02500513          	li	a0,37
    21ac:	000980e7          	jalr	s3
    21b0:	000a8413          	mv	s0,s5
    21b4:	f3dff06f          	j	20f0 <vprintfmt+0x60>
    21b8:	00174603          	lbu	a2,1(a4)
    21bc:	00900793          	li	a5,9
    21c0:	fd068493          	addi	s1,a3,-48
    21c4:	fd060713          	addi	a4,a2,-48
    21c8:	00060693          	mv	a3,a2
    21cc:	36e7ec63          	bltu	a5,a4,2544 <vprintfmt+0x4b4>
    21d0:	00040713          	mv	a4,s0
    21d4:	00900513          	li	a0,9
    21d8:	00249793          	slli	a5,s1,0x2
    21dc:	009787b3          	add	a5,a5,s1
    21e0:	00170713          	addi	a4,a4,1
    21e4:	00179793          	slli	a5,a5,0x1
    21e8:	00c787b3          	add	a5,a5,a2
    21ec:	00074603          	lbu	a2,0(a4)
    21f0:	fd078493          	addi	s1,a5,-48
    21f4:	fd060793          	addi	a5,a2,-48
    21f8:	00060693          	mv	a3,a2
    21fc:	fcf57ee3          	bgeu	a0,a5,21d8 <vprintfmt+0x148>
    2200:	f00b5ce3          	bgez	s6,2118 <vprintfmt+0x88>
    2204:	00048b13          	mv	s6,s1
    2208:	fff00493          	li	s1,-1
    220c:	f0dff06f          	j	2118 <vprintfmt+0x88>
    2210:	00174683          	lbu	a3,1(a4)
    2214:	00040713          	mv	a4,s0
    2218:	f01ff06f          	j	2118 <vprintfmt+0x88>
    221c:	00090593          	mv	a1,s2
    2220:	02500513          	li	a0,37
    2224:	000980e7          	jalr	s3
    2228:	ec9ff06f          	j	20f0 <vprintfmt+0x60>
    222c:	00c12783          	lw	a5,12(sp)
    2230:	00174683          	lbu	a3,1(a4)
    2234:	00040713          	mv	a4,s0
    2238:	0007a483          	lw	s1,0(a5)
    223c:	00478793          	addi	a5,a5,4
    2240:	00f12623          	sw	a5,12(sp)
    2244:	fbdff06f          	j	2200 <vprintfmt+0x170>
    2248:	03000513          	li	a0,48
    224c:	00090593          	mv	a1,s2
    2250:	000980e7          	jalr	s3
    2254:	00090593          	mv	a1,s2
    2258:	07800513          	li	a0,120
    225c:	000980e7          	jalr	s3
    2260:	00c12783          	lw	a5,12(sp)
    2264:	01000a93          	li	s5,16
    2268:	00000d93          	li	s11,0
    226c:	00478713          	addi	a4,a5,4
    2270:	00c12783          	lw	a5,12(sp)
    2274:	00000c13          	li	s8,0
    2278:	0007a483          	lw	s1,0(a5)
    227c:	00e12623          	sw	a4,12(sp)
    2280:	000a8613          	mv	a2,s5
    2284:	00000693          	li	a3,0
    2288:	00048513          	mv	a0,s1
    228c:	000c0593          	mv	a1,s8
    2290:	4b8010ef          	jal	ra,3748 <__umoddi3>
    2294:	00a12823          	sw	a0,16(sp)
    2298:	278d8263          	beq	s11,s8,24fc <vprintfmt+0x46c>
    229c:	01410b93          	addi	s7,sp,20
    22a0:	00100c93          	li	s9,1
    22a4:	000a8613          	mv	a2,s5
    22a8:	00000693          	li	a3,0
    22ac:	00048513          	mv	a0,s1
    22b0:	000c0593          	mv	a1,s8
    22b4:	6d1000ef          	jal	ra,3184 <__udivdi3>
    22b8:	000a8613          	mv	a2,s5
    22bc:	00000693          	li	a3,0
    22c0:	00050493          	mv	s1,a0
    22c4:	00058c13          	mv	s8,a1
    22c8:	480010ef          	jal	ra,3748 <__umoddi3>
    22cc:	00aba023          	sw	a0,0(s7)
    22d0:	000c8d13          	mv	s10,s9
    22d4:	004b8b93          	addi	s7,s7,4
    22d8:	001c8c93          	addi	s9,s9,1
    22dc:	fd8d94e3          	bne	s11,s8,22a4 <vprintfmt+0x214>
    22e0:	fd54f2e3          	bgeu	s1,s5,22a4 <vprintfmt+0x214>
    22e4:	fffb0a93          	addi	s5,s6,-1
    22e8:	fffc8493          	addi	s1,s9,-1
    22ec:	016cdc63          	bge	s9,s6,2304 <vprintfmt+0x274>
    22f0:	00812503          	lw	a0,8(sp)
    22f4:	fffa8a93          	addi	s5,s5,-1
    22f8:	00090593          	mv	a1,s2
    22fc:	000980e7          	jalr	s3
    2300:	ff5498e3          	bne	s1,s5,22f0 <vprintfmt+0x260>
    2304:	002d1793          	slli	a5,s10,0x2
    2308:	01078793          	addi	a5,a5,16
    230c:	00278ab3          	add	s5,a5,sp
    2310:	00900493          	li	s1,9
    2314:	0080006f          	j	231c <vprintfmt+0x28c>
    2318:	00078d13          	mv	s10,a5
    231c:	000aa503          	lw	a0,0(s5)
    2320:	00090593          	mv	a1,s2
    2324:	ffca8a93          	addi	s5,s5,-4
    2328:	00a4b7b3          	sltu	a5,s1,a0
    232c:	40f007b3          	neg	a5,a5
    2330:	0277f793          	andi	a5,a5,39
    2334:	03078793          	addi	a5,a5,48
    2338:	00f50533          	add	a0,a0,a5
    233c:	000980e7          	jalr	s3
    2340:	fffd0793          	addi	a5,s10,-1
    2344:	fc0d1ae3          	bnez	s10,2318 <vprintfmt+0x288>
    2348:	da9ff06f          	j	20f0 <vprintfmt+0x60>
    234c:	00100793          	li	a5,1
    2350:	1ab7ce63          	blt	a5,a1,250c <vprintfmt+0x47c>
    2354:	00c12783          	lw	a5,12(sp)
    2358:	0007a483          	lw	s1,0(a5)
    235c:	00478793          	addi	a5,a5,4
    2360:	00f12623          	sw	a5,12(sp)
    2364:	41f4dc13          	srai	s8,s1,0x1f
    2368:	020c5063          	bgez	s8,2388 <vprintfmt+0x2f8>
    236c:	00090593          	mv	a1,s2
    2370:	02d00513          	li	a0,45
    2374:	000980e7          	jalr	s3
    2378:	00903733          	snez	a4,s1
    237c:	418007b3          	neg	a5,s8
    2380:	409004b3          	neg	s1,s1
    2384:	40e78c33          	sub	s8,a5,a4
    2388:	00a00a93          	li	s5,10
    238c:	00000d93          	li	s11,0
    2390:	ef1ff06f          	j	2280 <vprintfmt+0x1f0>
    2394:	00174683          	lbu	a3,1(a4)
    2398:	00158593          	addi	a1,a1,1
    239c:	00040713          	mv	a4,s0
    23a0:	d79ff06f          	j	2118 <vprintfmt+0x88>
    23a4:	01000a93          	li	s5,16
    23a8:	00000d93          	li	s11,0
    23ac:	00100793          	li	a5,1
    23b0:	12b7c663          	blt	a5,a1,24dc <vprintfmt+0x44c>
    23b4:	00c12783          	lw	a5,12(sp)
    23b8:	00478713          	addi	a4,a5,4
    23bc:	eb5ff06f          	j	2270 <vprintfmt+0x1e0>
    23c0:	00c12783          	lw	a5,12(sp)
    23c4:	0007aa83          	lw	s5,0(a5)
    23c8:	00478b93          	addi	s7,a5,4
    23cc:	060a8263          	beqz	s5,2430 <vprintfmt+0x3a0>
    23d0:	0d605463          	blez	s6,2498 <vprintfmt+0x408>
    23d4:	00812703          	lw	a4,8(sp)
    23d8:	02d00793          	li	a5,45
    23dc:	06f71e63          	bne	a4,a5,2458 <vprintfmt+0x3c8>
    23e0:	000ac503          	lbu	a0,0(s5)
    23e4:	02050863          	beqz	a0,2414 <vprintfmt+0x384>
    23e8:	fff00c13          	li	s8,-1
    23ec:	0004c663          	bltz	s1,23f8 <vprintfmt+0x368>
    23f0:	fff48493          	addi	s1,s1,-1
    23f4:	01848e63          	beq	s1,s8,2410 <vprintfmt+0x380>
    23f8:	00090593          	mv	a1,s2
    23fc:	001a8a93          	addi	s5,s5,1
    2400:	000980e7          	jalr	s3
    2404:	000ac503          	lbu	a0,0(s5)
    2408:	fffb0b13          	addi	s6,s6,-1
    240c:	fe0510e3          	bnez	a0,23ec <vprintfmt+0x35c>
    2410:	01605c63          	blez	s6,2428 <vprintfmt+0x398>
    2414:	fffb0b13          	addi	s6,s6,-1
    2418:	00090593          	mv	a1,s2
    241c:	02000513          	li	a0,32
    2420:	000980e7          	jalr	s3
    2424:	fe0b18e3          	bnez	s6,2414 <vprintfmt+0x384>
    2428:	01712623          	sw	s7,12(sp)
    242c:	cc5ff06f          	j	20f0 <vprintfmt+0x60>
    2430:	00002a97          	auipc	s5,0x2
    2434:	97ca8a93          	addi	s5,s5,-1668 # 3dac <main+0xbc>
    2438:	02800513          	li	a0,40
    243c:	fb6056e3          	blez	s6,23e8 <vprintfmt+0x358>
    2440:	00812703          	lw	a4,8(sp)
    2444:	02d00793          	li	a5,45
    2448:	00002a97          	auipc	s5,0x2
    244c:	964a8a93          	addi	s5,s5,-1692 # 3dac <main+0xbc>
    2450:	02800513          	li	a0,40
    2454:	f8f70ae3          	beq	a4,a5,23e8 <vprintfmt+0x358>
    2458:	000a8793          	mv	a5,s5
    245c:	009a86b3          	add	a3,s5,s1
    2460:	00049863          	bnez	s1,2470 <vprintfmt+0x3e0>
    2464:	0200006f          	j	2484 <vprintfmt+0x3f4>
    2468:	00178793          	addi	a5,a5,1
    246c:	00d78663          	beq	a5,a3,2478 <vprintfmt+0x3e8>
    2470:	0007c703          	lbu	a4,0(a5)
    2474:	fe071ae3          	bnez	a4,2468 <vprintfmt+0x3d8>
    2478:	415787b3          	sub	a5,a5,s5
    247c:	40fb0b33          	sub	s6,s6,a5
    2480:	01605c63          	blez	s6,2498 <vprintfmt+0x408>
    2484:	00812503          	lw	a0,8(sp)
    2488:	fffb0b13          	addi	s6,s6,-1
    248c:	00090593          	mv	a1,s2
    2490:	000980e7          	jalr	s3
    2494:	fe0b18e3          	bnez	s6,2484 <vprintfmt+0x3f4>
    2498:	000ac503          	lbu	a0,0(s5)
    249c:	f80506e3          	beqz	a0,2428 <vprintfmt+0x398>
    24a0:	fff00c13          	li	s8,-1
    24a4:	f49ff06f          	j	23ec <vprintfmt+0x35c>
    24a8:	fffb4793          	not	a5,s6
    24ac:	41f7d793          	srai	a5,a5,0x1f
    24b0:	00174683          	lbu	a3,1(a4)
    24b4:	00fb7b33          	and	s6,s6,a5
    24b8:	00040713          	mv	a4,s0
    24bc:	c5dff06f          	j	2118 <vprintfmt+0x88>
    24c0:	00c12783          	lw	a5,12(sp)
    24c4:	00090593          	mv	a1,s2
    24c8:	0007a503          	lw	a0,0(a5)
    24cc:	00478b93          	addi	s7,a5,4
    24d0:	000980e7          	jalr	s3
    24d4:	01712623          	sw	s7,12(sp)
    24d8:	c19ff06f          	j	20f0 <vprintfmt+0x60>
    24dc:	00c12783          	lw	a5,12(sp)
    24e0:	00778b93          	addi	s7,a5,7
    24e4:	ff8bfb93          	andi	s7,s7,-8
    24e8:	008b8793          	addi	a5,s7,8
    24ec:	000ba483          	lw	s1,0(s7)
    24f0:	004bac03          	lw	s8,4(s7)
    24f4:	00f12623          	sw	a5,12(sp)
    24f8:	d89ff06f          	j	2280 <vprintfmt+0x1f0>
    24fc:	db54f0e3          	bgeu	s1,s5,229c <vprintfmt+0x20c>
    2500:	00000d13          	li	s10,0
    2504:	00100c93          	li	s9,1
    2508:	dddff06f          	j	22e4 <vprintfmt+0x254>
    250c:	00c12783          	lw	a5,12(sp)
    2510:	00778b93          	addi	s7,a5,7
    2514:	ff8bfb93          	andi	s7,s7,-8
    2518:	008b8793          	addi	a5,s7,8
    251c:	000ba483          	lw	s1,0(s7)
    2520:	004bac03          	lw	s8,4(s7)
    2524:	00f12623          	sw	a5,12(sp)
    2528:	e41ff06f          	j	2368 <vprintfmt+0x2d8>
    252c:	00a00a93          	li	s5,10
    2530:	00000d93          	li	s11,0
    2534:	e79ff06f          	j	23ac <vprintfmt+0x31c>
    2538:	00800a93          	li	s5,8
    253c:	00000d93          	li	s11,0
    2540:	e6dff06f          	j	23ac <vprintfmt+0x31c>
    2544:	00040713          	mv	a4,s0
    2548:	cb9ff06f          	j	2200 <vprintfmt+0x170>

0000254c <sprintf_putch.0>:
    254c:	0005a783          	lw	a5,0(a1)
    2550:	00a78023          	sb	a0,0(a5)
    2554:	0005a783          	lw	a5,0(a1)
    2558:	00178793          	addi	a5,a5,1
    255c:	00f5a023          	sw	a5,0(a1)
    2560:	00008067          	ret

00002564 <putchar>:
    2564:	04022803          	lw	a6,64(tp) # 40 <buflen.1>
    2568:	00020793          	mv	a5,tp
    256c:	010787b3          	add	a5,a5,a6
    2570:	f8010113          	addi	sp,sp,-128
    2574:	00180713          	addi	a4,a6,1
    2578:	04e22023          	sw	a4,64(tp) # 40 <buflen.1>
    257c:	00a78023          	sb	a0,0(a5)
    2580:	03f10693          	addi	a3,sp,63
    2584:	00a00793          	li	a5,10
    2588:	fc06f693          	andi	a3,a3,-64
    258c:	00f50c63          	beq	a0,a5,25a4 <putchar+0x40>
    2590:	04000793          	li	a5,64
    2594:	00f70863          	beq	a4,a5,25a4 <putchar+0x40>
    2598:	00000513          	li	a0,0
    259c:	08010113          	addi	sp,sp,128
    25a0:	00008067          	ret
    25a4:	04000813          	li	a6,64
    25a8:	0106a023          	sw	a6,0(a3)
    25ac:	00000893          	li	a7,0
    25b0:	0116a223          	sw	a7,4(a3)
    25b4:	00100e13          	li	t3,1
    25b8:	01c6a423          	sw	t3,8(a3)
    25bc:	00000e93          	li	t4,0
    25c0:	01d6a623          	sw	t4,12(a3)
    25c4:	00020313          	mv	t1,tp
    25c8:	0066a823          	sw	t1,16(a3)
    25cc:	00000393          	li	t2,0
    25d0:	0076aa23          	sw	t2,20(a3)
    25d4:	00e6ac23          	sw	a4,24(a3)
    25d8:	41f75893          	srai	a7,a4,0x1f
    25dc:	0116ae23          	sw	a7,28(a3)
    25e0:	0ff0000f          	fence
    25e4:	0000d617          	auipc	a2,0xd
    25e8:	a1c60613          	addi	a2,a2,-1508 # f000 <tohost>
    25ec:	00d62023          	sw	a3,0(a2)
    25f0:	00000793          	li	a5,0
    25f4:	00f62223          	sw	a5,4(a2)
    25f8:	0000d617          	auipc	a2,0xd
    25fc:	a4860613          	addi	a2,a2,-1464 # f040 <fromhost>
    2600:	00062703          	lw	a4,0(a2)
    2604:	00462783          	lw	a5,4(a2)
    2608:	00f76733          	or	a4,a4,a5
    260c:	fe070ae3          	beqz	a4,2600 <putchar+0x9c>
    2610:	00000793          	li	a5,0
    2614:	00f62023          	sw	a5,0(a2)
    2618:	00000813          	li	a6,0
    261c:	01062223          	sw	a6,4(a2)
    2620:	0ff0000f          	fence
    2624:	04022023          	sw	zero,64(tp) # 40 <buflen.1>
    2628:	0006a703          	lw	a4,0(a3)
    262c:	00000513          	li	a0,0
    2630:	0046a783          	lw	a5,4(a3)
    2634:	08010113          	addi	sp,sp,128
    2638:	00008067          	ret

0000263c <setStats>:
    263c:	b0002773          	csrr	a4,mcycle
    2640:	00002797          	auipc	a5,0x2
    2644:	79078793          	addi	a5,a5,1936 # 4dd0 <counters>
    2648:	00050a63          	beqz	a0,265c <setStats+0x20>
    264c:	00e7a023          	sw	a4,0(a5)
    2650:	b0202773          	csrr	a4,minstret
    2654:	00e7a223          	sw	a4,4(a5)
    2658:	00008067          	ret
    265c:	0007a603          	lw	a2,0(a5)
    2660:	00002697          	auipc	a3,0x2
    2664:	76868693          	addi	a3,a3,1896 # 4dc8 <counter_names>
    2668:	40c70733          	sub	a4,a4,a2
    266c:	00001617          	auipc	a2,0x1
    2670:	74860613          	addi	a2,a2,1864 # 3db4 <main+0xc4>
    2674:	00c6a023          	sw	a2,0(a3)
    2678:	00e7a023          	sw	a4,0(a5)
    267c:	b0202773          	csrr	a4,minstret
    2680:	0047a603          	lw	a2,4(a5)
    2684:	00001597          	auipc	a1,0x1
    2688:	73858593          	addi	a1,a1,1848 # 3dbc <main+0xcc>
    268c:	00b6a223          	sw	a1,4(a3)
    2690:	40c70733          	sub	a4,a4,a2
    2694:	00e7a223          	sw	a4,4(a5)
    2698:	00008067          	ret

0000269c <tohost_exit>:
    269c:	00151693          	slli	a3,a0,0x1
    26a0:	0016e713          	ori	a4,a3,1
    26a4:	0000d697          	auipc	a3,0xd
    26a8:	95c68693          	addi	a3,a3,-1700 # f000 <tohost>
    26ac:	00000793          	li	a5,0
    26b0:	00e6a023          	sw	a4,0(a3)
    26b4:	00f6a223          	sw	a5,4(a3)
    26b8:	0000006f          	j	26b8 <tohost_exit+0x1c>

000026bc <handle_trap>:
    26bc:	00001637          	lui	a2,0x1
    26c0:	0000d797          	auipc	a5,0xd
    26c4:	94078793          	addi	a5,a5,-1728 # f000 <tohost>
    26c8:	a7360613          	addi	a2,a2,-1421 # a73 <buflen.1+0xa33>
    26cc:	00000693          	li	a3,0
    26d0:	00c7a023          	sw	a2,0(a5)
    26d4:	00d7a223          	sw	a3,4(a5)
    26d8:	0000006f          	j	26d8 <handle_trap+0x1c>

000026dc <exit>:
    26dc:	ff010113          	addi	sp,sp,-16
    26e0:	00112623          	sw	ra,12(sp)
    26e4:	fb9ff0ef          	jal	ra,269c <tohost_exit>

000026e8 <abort>:
    26e8:	0000d797          	auipc	a5,0xd
    26ec:	91878793          	addi	a5,a5,-1768 # f000 <tohost>
    26f0:	10d00613          	li	a2,269
    26f4:	00000693          	li	a3,0
    26f8:	00c7a023          	sw	a2,0(a5)
    26fc:	00d7a223          	sw	a3,4(a5)
    2700:	0000006f          	j	2700 <abort+0x18>

00002704 <printstr>:
    2704:	00054783          	lbu	a5,0(a0)
    2708:	f8010113          	addi	sp,sp,-128
    270c:	03f10613          	addi	a2,sp,63
    2710:	00050813          	mv	a6,a0
    2714:	fc067613          	andi	a2,a2,-64
    2718:	00000893          	li	a7,0
    271c:	0a078063          	beqz	a5,27bc <printstr+0xb8>
    2720:	00050793          	mv	a5,a0
    2724:	0017c703          	lbu	a4,1(a5)
    2728:	00178793          	addi	a5,a5,1
    272c:	fe071ce3          	bnez	a4,2724 <printstr+0x20>
    2730:	40a78333          	sub	t1,a5,a0
    2734:	00000393          	li	t2,0
    2738:	04000713          	li	a4,64
    273c:	00e62023          	sw	a4,0(a2)
    2740:	00000793          	li	a5,0
    2744:	00f62223          	sw	a5,4(a2)
    2748:	00100713          	li	a4,1
    274c:	00e62423          	sw	a4,8(a2)
    2750:	00000793          	li	a5,0
    2754:	00f62623          	sw	a5,12(a2)
    2758:	01062823          	sw	a6,16(a2)
    275c:	01162a23          	sw	a7,20(a2)
    2760:	00662c23          	sw	t1,24(a2)
    2764:	00762e23          	sw	t2,28(a2)
    2768:	0ff0000f          	fence
    276c:	0000d697          	auipc	a3,0xd
    2770:	89468693          	addi	a3,a3,-1900 # f000 <tohost>
    2774:	00c6a023          	sw	a2,0(a3)
    2778:	00000793          	li	a5,0
    277c:	00f6a223          	sw	a5,4(a3)
    2780:	0000d697          	auipc	a3,0xd
    2784:	8c068693          	addi	a3,a3,-1856 # f040 <fromhost>
    2788:	0006a703          	lw	a4,0(a3)
    278c:	0046a783          	lw	a5,4(a3)
    2790:	00f76733          	or	a4,a4,a5
    2794:	fe070ae3          	beqz	a4,2788 <printstr+0x84>
    2798:	00000793          	li	a5,0
    279c:	00f6a023          	sw	a5,0(a3)
    27a0:	00000813          	li	a6,0
    27a4:	0106a223          	sw	a6,4(a3)
    27a8:	0ff0000f          	fence
    27ac:	00062703          	lw	a4,0(a2)
    27b0:	00462783          	lw	a5,4(a2)
    27b4:	08010113          	addi	sp,sp,128
    27b8:	00008067          	ret
    27bc:	00000313          	li	t1,0
    27c0:	00000393          	li	t2,0
    27c4:	f75ff06f          	j	2738 <printstr+0x34>

000027c8 <thread_entry>:
    27c8:	00051063          	bnez	a0,27c8 <thread_entry>
    27cc:	00008067          	ret

000027d0 <printhex>:
    27d0:	fd010113          	addi	sp,sp,-48
    27d4:	00050713          	mv	a4,a0
    27d8:	02112623          	sw	ra,44(sp)
    27dc:	00c10513          	addi	a0,sp,12
    27e0:	01b10693          	addi	a3,sp,27
    27e4:	00900813          	li	a6,9
    27e8:	0080006f          	j	27f0 <printhex+0x20>
    27ec:	00078693          	mv	a3,a5
    27f0:	00f77793          	andi	a5,a4,15
    27f4:	00f837b3          	sltu	a5,a6,a5
    27f8:	40f007b3          	neg	a5,a5
    27fc:	0277f793          	andi	a5,a5,39
    2800:	00f77613          	andi	a2,a4,15
    2804:	03078793          	addi	a5,a5,48
    2808:	00f607b3          	add	a5,a2,a5
    280c:	00f68023          	sb	a5,0(a3)
    2810:	01c59613          	slli	a2,a1,0x1c
    2814:	00475713          	srli	a4,a4,0x4
    2818:	fff68793          	addi	a5,a3,-1
    281c:	00e66733          	or	a4,a2,a4
    2820:	0045d593          	srli	a1,a1,0x4
    2824:	fcd514e3          	bne	a0,a3,27ec <printhex+0x1c>
    2828:	00010e23          	sb	zero,28(sp)
    282c:	ed9ff0ef          	jal	ra,2704 <printstr>
    2830:	02c12083          	lw	ra,44(sp)
    2834:	03010113          	addi	sp,sp,48
    2838:	00008067          	ret

0000283c <printf>:
    283c:	fc010113          	addi	sp,sp,-64
    2840:	02410313          	addi	t1,sp,36
    2844:	00050e13          	mv	t3,a0
    2848:	02b12223          	sw	a1,36(sp)
    284c:	02c12423          	sw	a2,40(sp)
    2850:	02d12623          	sw	a3,44(sp)
    2854:	00000517          	auipc	a0,0x0
    2858:	d1050513          	addi	a0,a0,-752 # 2564 <putchar>
    285c:	00030693          	mv	a3,t1
    2860:	000e0613          	mv	a2,t3
    2864:	00000593          	li	a1,0
    2868:	00112e23          	sw	ra,28(sp)
    286c:	02e12823          	sw	a4,48(sp)
    2870:	02f12a23          	sw	a5,52(sp)
    2874:	03012c23          	sw	a6,56(sp)
    2878:	03112e23          	sw	a7,60(sp)
    287c:	00612623          	sw	t1,12(sp)
    2880:	811ff0ef          	jal	ra,2090 <vprintfmt>
    2884:	01c12083          	lw	ra,28(sp)
    2888:	00000513          	li	a0,0
    288c:	04010113          	addi	sp,sp,64
    2890:	00008067          	ret

00002894 <sprintf>:
    2894:	fb010113          	addi	sp,sp,-80
    2898:	03810313          	addi	t1,sp,56
    289c:	02812423          	sw	s0,40(sp)
    28a0:	00a12623          	sw	a0,12(sp)
    28a4:	02c12c23          	sw	a2,56(sp)
    28a8:	02d12e23          	sw	a3,60(sp)
    28ac:	00050413          	mv	s0,a0
    28b0:	00058613          	mv	a2,a1
    28b4:	00000517          	auipc	a0,0x0
    28b8:	c9850513          	addi	a0,a0,-872 # 254c <sprintf_putch.0>
    28bc:	00c10593          	addi	a1,sp,12
    28c0:	00030693          	mv	a3,t1
    28c4:	02112623          	sw	ra,44(sp)
    28c8:	04f12223          	sw	a5,68(sp)
    28cc:	04e12023          	sw	a4,64(sp)
    28d0:	05012423          	sw	a6,72(sp)
    28d4:	05112623          	sw	a7,76(sp)
    28d8:	00612e23          	sw	t1,28(sp)
    28dc:	fb4ff0ef          	jal	ra,2090 <vprintfmt>
    28e0:	00c12783          	lw	a5,12(sp)
    28e4:	00078023          	sb	zero,0(a5)
    28e8:	00c12503          	lw	a0,12(sp)
    28ec:	02c12083          	lw	ra,44(sp)
    28f0:	40850533          	sub	a0,a0,s0
    28f4:	02812403          	lw	s0,40(sp)
    28f8:	05010113          	addi	sp,sp,80
    28fc:	00008067          	ret

00002900 <memcpy>:
    2900:	00b567b3          	or	a5,a0,a1
    2904:	00c7e7b3          	or	a5,a5,a2
    2908:	0037f793          	andi	a5,a5,3
    290c:	00c506b3          	add	a3,a0,a2
    2910:	02078463          	beqz	a5,2938 <memcpy+0x38>
    2914:	00c58633          	add	a2,a1,a2
    2918:	00050793          	mv	a5,a0
    291c:	02d57e63          	bgeu	a0,a3,2958 <memcpy+0x58>
    2920:	0005c703          	lbu	a4,0(a1)
    2924:	00158593          	addi	a1,a1,1
    2928:	00178793          	addi	a5,a5,1
    292c:	fee78fa3          	sb	a4,-1(a5)
    2930:	feb618e3          	bne	a2,a1,2920 <memcpy+0x20>
    2934:	00008067          	ret
    2938:	fed57ee3          	bgeu	a0,a3,2934 <memcpy+0x34>
    293c:	00050793          	mv	a5,a0
    2940:	0005a703          	lw	a4,0(a1)
    2944:	00478793          	addi	a5,a5,4
    2948:	00458593          	addi	a1,a1,4
    294c:	fee7ae23          	sw	a4,-4(a5)
    2950:	fed7e8e3          	bltu	a5,a3,2940 <memcpy+0x40>
    2954:	00008067          	ret
    2958:	00008067          	ret

0000295c <memset>:
    295c:	00c567b3          	or	a5,a0,a2
    2960:	0037f793          	andi	a5,a5,3
    2964:	00c50633          	add	a2,a0,a2
    2968:	02078063          	beqz	a5,2988 <memset+0x2c>
    296c:	0ff5f593          	zext.b	a1,a1
    2970:	00050793          	mv	a5,a0
    2974:	04c57063          	bgeu	a0,a2,29b4 <memset+0x58>
    2978:	00178793          	addi	a5,a5,1
    297c:	feb78fa3          	sb	a1,-1(a5)
    2980:	fec79ce3          	bne	a5,a2,2978 <memset+0x1c>
    2984:	00008067          	ret
    2988:	0ff5f593          	zext.b	a1,a1
    298c:	00859713          	slli	a4,a1,0x8
    2990:	00b70733          	add	a4,a4,a1
    2994:	01071793          	slli	a5,a4,0x10
    2998:	00f70733          	add	a4,a4,a5
    299c:	fec574e3          	bgeu	a0,a2,2984 <memset+0x28>
    29a0:	00050793          	mv	a5,a0
    29a4:	00478793          	addi	a5,a5,4
    29a8:	fee7ae23          	sw	a4,-4(a5)
    29ac:	fec7ece3          	bltu	a5,a2,29a4 <memset+0x48>
    29b0:	00008067          	ret
    29b4:	00008067          	ret

000029b8 <_init>:
    29b8:	f6010113          	addi	sp,sp,-160
    29bc:	00002797          	auipc	a5,0x2
    29c0:	41c78793          	addi	a5,a5,1052 # 4dd8 <_tdata_begin>
    29c4:	09412423          	sw	s4,136(sp)
    29c8:	00002a17          	auipc	s4,0x2
    29cc:	410a0a13          	addi	s4,s4,1040 # 4dd8 <_tdata_begin>
    29d0:	09312623          	sw	s3,140(sp)
    29d4:	40fa09b3          	sub	s3,s4,a5
    29d8:	08912a23          	sw	s1,148(sp)
    29dc:	09212823          	sw	s2,144(sp)
    29e0:	00050493          	mv	s1,a0
    29e4:	00058913          	mv	s2,a1
    29e8:	00020513          	mv	a0,tp
    29ec:	00078593          	mv	a1,a5
    29f0:	00098613          	mv	a2,s3
    29f4:	08112e23          	sw	ra,156(sp)
    29f8:	08812c23          	sw	s0,152(sp)
    29fc:	09512223          	sw	s5,132(sp)
    2a00:	00020a93          	mv	s5,tp
    2a04:	efdff0ef          	jal	ra,2900 <memcpy>
    2a08:	87c18613          	addi	a2,gp,-1924 # 4e44 <_tbss_end>
    2a0c:	41460633          	sub	a2,a2,s4
    2a10:	00000593          	li	a1,0
    2a14:	013a8533          	add	a0,s5,s3
    2a18:	f45ff0ef          	jal	ra,295c <memset>
    2a1c:	00090593          	mv	a1,s2
    2a20:	00048513          	mv	a0,s1
    2a24:	da5ff0ef          	jal	ra,27c8 <thread_entry>
    2a28:	00000593          	li	a1,0
    2a2c:	00000513          	li	a0,0
    2a30:	2c0010ef          	jal	ra,3cf0 <main>
    2a34:	00002917          	auipc	s2,0x2
    2a38:	39c90913          	addi	s2,s2,924 # 4dd0 <counters>
    2a3c:	00092683          	lw	a3,0(s2)
    2a40:	03f10413          	addi	s0,sp,63
    2a44:	fc047413          	andi	s0,s0,-64
    2a48:	00050493          	mv	s1,a0
    2a4c:	04069463          	bnez	a3,2a94 <_init+0xdc>
    2a50:	00492683          	lw	a3,4(s2)
    2a54:	00069663          	bnez	a3,2a60 <_init+0xa8>
    2a58:	00048513          	mv	a0,s1
    2a5c:	c41ff0ef          	jal	ra,269c <tohost_exit>
    2a60:	00040913          	mv	s2,s0
    2a64:	00002997          	auipc	s3,0x2
    2a68:	36498993          	addi	s3,s3,868 # 4dc8 <counter_names>
    2a6c:	0049a603          	lw	a2,4(s3)
    2a70:	00090513          	mv	a0,s2
    2a74:	00001597          	auipc	a1,0x1
    2a78:	36c58593          	addi	a1,a1,876 # 3de0 <main+0xf0>
    2a7c:	e19ff0ef          	jal	ra,2894 <sprintf>
    2a80:	00a90933          	add	s2,s2,a0
    2a84:	fd240ae3          	beq	s0,s2,2a58 <_init+0xa0>
    2a88:	00040513          	mv	a0,s0
    2a8c:	c79ff0ef          	jal	ra,2704 <printstr>
    2a90:	fc9ff06f          	j	2a58 <_init+0xa0>
    2a94:	00002997          	auipc	s3,0x2
    2a98:	33498993          	addi	s3,s3,820 # 4dc8 <counter_names>
    2a9c:	0009a603          	lw	a2,0(s3)
    2aa0:	00001597          	auipc	a1,0x1
    2aa4:	34058593          	addi	a1,a1,832 # 3de0 <main+0xf0>
    2aa8:	00040513          	mv	a0,s0
    2aac:	de9ff0ef          	jal	ra,2894 <sprintf>
    2ab0:	00492683          	lw	a3,4(s2)
    2ab4:	00a40933          	add	s2,s0,a0
    2ab8:	fc0686e3          	beqz	a3,2a84 <_init+0xcc>
    2abc:	fb1ff06f          	j	2a6c <_init+0xb4>

00002ac0 <strlen>:
    2ac0:	00054783          	lbu	a5,0(a0)
    2ac4:	00078e63          	beqz	a5,2ae0 <strlen+0x20>
    2ac8:	00050793          	mv	a5,a0
    2acc:	0017c703          	lbu	a4,1(a5)
    2ad0:	00178793          	addi	a5,a5,1
    2ad4:	fe071ce3          	bnez	a4,2acc <strlen+0xc>
    2ad8:	40a78533          	sub	a0,a5,a0
    2adc:	00008067          	ret
    2ae0:	00000513          	li	a0,0
    2ae4:	00008067          	ret

00002ae8 <strnlen>:
    2ae8:	00b506b3          	add	a3,a0,a1
    2aec:	00050793          	mv	a5,a0
    2af0:	00059863          	bnez	a1,2b00 <strnlen+0x18>
    2af4:	0240006f          	j	2b18 <strnlen+0x30>
    2af8:	00178793          	addi	a5,a5,1
    2afc:	00f68a63          	beq	a3,a5,2b10 <strnlen+0x28>
    2b00:	0007c703          	lbu	a4,0(a5)
    2b04:	fe071ae3          	bnez	a4,2af8 <strnlen+0x10>
    2b08:	40a78533          	sub	a0,a5,a0
    2b0c:	00008067          	ret
    2b10:	40a68533          	sub	a0,a3,a0
    2b14:	00008067          	ret
    2b18:	00000513          	li	a0,0
    2b1c:	00008067          	ret

00002b20 <strcmp>:
    2b20:	00054783          	lbu	a5,0(a0)
    2b24:	00158593          	addi	a1,a1,1
    2b28:	00150513          	addi	a0,a0,1
    2b2c:	fff5c703          	lbu	a4,-1(a1)
    2b30:	00078863          	beqz	a5,2b40 <strcmp+0x20>
    2b34:	fee786e3          	beq	a5,a4,2b20 <strcmp>
    2b38:	40e78533          	sub	a0,a5,a4
    2b3c:	00008067          	ret
    2b40:	00000793          	li	a5,0
    2b44:	ff5ff06f          	j	2b38 <strcmp+0x18>

00002b48 <strcpy>:
    2b48:	00050793          	mv	a5,a0
    2b4c:	0005c703          	lbu	a4,0(a1)
    2b50:	00178793          	addi	a5,a5,1
    2b54:	00158593          	addi	a1,a1,1
    2b58:	fee78fa3          	sb	a4,-1(a5)
    2b5c:	fe0718e3          	bnez	a4,2b4c <strcpy+0x4>
    2b60:	00008067          	ret

00002b64 <atol>:
    2b64:	00054703          	lbu	a4,0(a0)
    2b68:	02000693          	li	a3,32
    2b6c:	00050793          	mv	a5,a0
    2b70:	00d71863          	bne	a4,a3,2b80 <atol+0x1c>
    2b74:	0017c703          	lbu	a4,1(a5)
    2b78:	00178793          	addi	a5,a5,1
    2b7c:	fed70ce3          	beq	a4,a3,2b74 <atol+0x10>
    2b80:	02d00693          	li	a3,45
    2b84:	06d70063          	beq	a4,a3,2be4 <atol+0x80>
    2b88:	02b00693          	li	a3,43
    2b8c:	04d70063          	beq	a4,a3,2bcc <atol+0x68>
    2b90:	0007c683          	lbu	a3,0(a5)
    2b94:	00000593          	li	a1,0
    2b98:	04068263          	beqz	a3,2bdc <atol+0x78>
    2b9c:	00000513          	li	a0,0
    2ba0:	00178793          	addi	a5,a5,1
    2ba4:	00251713          	slli	a4,a0,0x2
    2ba8:	fd068613          	addi	a2,a3,-48
    2bac:	0007c683          	lbu	a3,0(a5)
    2bb0:	00a70733          	add	a4,a4,a0
    2bb4:	00171713          	slli	a4,a4,0x1
    2bb8:	00e60533          	add	a0,a2,a4
    2bbc:	fe0692e3          	bnez	a3,2ba0 <atol+0x3c>
    2bc0:	02058063          	beqz	a1,2be0 <atol+0x7c>
    2bc4:	40a00533          	neg	a0,a0
    2bc8:	00008067          	ret
    2bcc:	0017c683          	lbu	a3,1(a5)
    2bd0:	00000593          	li	a1,0
    2bd4:	00178793          	addi	a5,a5,1
    2bd8:	fc0692e3          	bnez	a3,2b9c <atol+0x38>
    2bdc:	00000513          	li	a0,0
    2be0:	00008067          	ret
    2be4:	0017c683          	lbu	a3,1(a5)
    2be8:	00100593          	li	a1,1
    2bec:	00178793          	addi	a5,a5,1
    2bf0:	fa0696e3          	bnez	a3,2b9c <atol+0x38>
    2bf4:	00000513          	li	a0,0
    2bf8:	fe9ff06f          	j	2be0 <atol+0x7c>

00002bfc <__moddi3>:
    2bfc:	fc010113          	addi	sp,sp,-64
    2c00:	02912a23          	sw	s1,52(sp)
    2c04:	02112e23          	sw	ra,60(sp)
    2c08:	02812c23          	sw	s0,56(sp)
    2c0c:	03212823          	sw	s2,48(sp)
    2c10:	03312623          	sw	s3,44(sp)
    2c14:	03412423          	sw	s4,40(sp)
    2c18:	03512223          	sw	s5,36(sp)
    2c1c:	03612023          	sw	s6,32(sp)
    2c20:	01712e23          	sw	s7,28(sp)
    2c24:	01812c23          	sw	s8,24(sp)
    2c28:	01912a23          	sw	s9,20(sp)
    2c2c:	01a12823          	sw	s10,16(sp)
    2c30:	01b12623          	sw	s11,12(sp)
    2c34:	00000493          	li	s1,0
    2c38:	0005dc63          	bgez	a1,2c50 <__moddi3+0x54>
    2c3c:	00a037b3          	snez	a5,a0
    2c40:	40b005b3          	neg	a1,a1
    2c44:	40f585b3          	sub	a1,a1,a5
    2c48:	40a00533          	neg	a0,a0
    2c4c:	fff00493          	li	s1,-1
    2c50:	0006da63          	bgez	a3,2c64 <__moddi3+0x68>
    2c54:	00c037b3          	snez	a5,a2
    2c58:	40d006b3          	neg	a3,a3
    2c5c:	40f686b3          	sub	a3,a3,a5
    2c60:	40c00633          	neg	a2,a2
    2c64:	00060a13          	mv	s4,a2
    2c68:	00050413          	mv	s0,a0
    2c6c:	00058b13          	mv	s6,a1
    2c70:	2c069e63          	bnez	a3,2f4c <__moddi3+0x350>
    2c74:	000047b7          	lui	a5,0x4
    2c78:	f4478793          	addi	a5,a5,-188 # 3f44 <__clz_tab>
    2c7c:	14c5fa63          	bgeu	a1,a2,2dd0 <__moddi3+0x1d4>
    2c80:	00010737          	lui	a4,0x10
    2c84:	12e67c63          	bgeu	a2,a4,2dbc <__moddi3+0x1c0>
    2c88:	10063713          	sltiu	a4,a2,256
    2c8c:	00174713          	xori	a4,a4,1
    2c90:	00371713          	slli	a4,a4,0x3
    2c94:	00e656b3          	srl	a3,a2,a4
    2c98:	00d787b3          	add	a5,a5,a3
    2c9c:	0007c783          	lbu	a5,0(a5)
    2ca0:	00e787b3          	add	a5,a5,a4
    2ca4:	02000713          	li	a4,32
    2ca8:	40f709b3          	sub	s3,a4,a5
    2cac:	00f70c63          	beq	a4,a5,2cc4 <__moddi3+0xc8>
    2cb0:	013595b3          	sll	a1,a1,s3
    2cb4:	00f557b3          	srl	a5,a0,a5
    2cb8:	01361a33          	sll	s4,a2,s3
    2cbc:	00b7eb33          	or	s6,a5,a1
    2cc0:	01351433          	sll	s0,a0,s3
    2cc4:	010a5b93          	srli	s7,s4,0x10
    2cc8:	000b8593          	mv	a1,s7
    2ccc:	010a1a93          	slli	s5,s4,0x10
    2cd0:	000b0513          	mv	a0,s6
    2cd4:	771000ef          	jal	ra,3c44 <__hidden___udivsi3>
    2cd8:	010ada93          	srli	s5,s5,0x10
    2cdc:	000a8593          	mv	a1,s5
    2ce0:	739000ef          	jal	ra,3c18 <__mulsi3>
    2ce4:	00050913          	mv	s2,a0
    2ce8:	000b8593          	mv	a1,s7
    2cec:	000b0513          	mv	a0,s6
    2cf0:	79d000ef          	jal	ra,3c8c <__umodsi3>
    2cf4:	01051513          	slli	a0,a0,0x10
    2cf8:	01045793          	srli	a5,s0,0x10
    2cfc:	00a7e7b3          	or	a5,a5,a0
    2d00:	0127fa63          	bgeu	a5,s2,2d14 <__moddi3+0x118>
    2d04:	00fa07b3          	add	a5,s4,a5
    2d08:	0147e663          	bltu	a5,s4,2d14 <__moddi3+0x118>
    2d0c:	0127f463          	bgeu	a5,s2,2d14 <__moddi3+0x118>
    2d10:	014787b3          	add	a5,a5,s4
    2d14:	41278933          	sub	s2,a5,s2
    2d18:	000b8593          	mv	a1,s7
    2d1c:	00090513          	mv	a0,s2
    2d20:	725000ef          	jal	ra,3c44 <__hidden___udivsi3>
    2d24:	000a8593          	mv	a1,s5
    2d28:	6f1000ef          	jal	ra,3c18 <__mulsi3>
    2d2c:	00050a93          	mv	s5,a0
    2d30:	000b8593          	mv	a1,s7
    2d34:	00090513          	mv	a0,s2
    2d38:	755000ef          	jal	ra,3c8c <__umodsi3>
    2d3c:	01041413          	slli	s0,s0,0x10
    2d40:	01051513          	slli	a0,a0,0x10
    2d44:	01045413          	srli	s0,s0,0x10
    2d48:	00a46433          	or	s0,s0,a0
    2d4c:	01547a63          	bgeu	s0,s5,2d60 <__moddi3+0x164>
    2d50:	008a0433          	add	s0,s4,s0
    2d54:	01446663          	bltu	s0,s4,2d60 <__moddi3+0x164>
    2d58:	01547463          	bgeu	s0,s5,2d60 <__moddi3+0x164>
    2d5c:	01440433          	add	s0,s0,s4
    2d60:	41540433          	sub	s0,s0,s5
    2d64:	01345533          	srl	a0,s0,s3
    2d68:	00000593          	li	a1,0
    2d6c:	00048a63          	beqz	s1,2d80 <__moddi3+0x184>
    2d70:	00a037b3          	snez	a5,a0
    2d74:	40b005b3          	neg	a1,a1
    2d78:	40f585b3          	sub	a1,a1,a5
    2d7c:	40a00533          	neg	a0,a0
    2d80:	03c12083          	lw	ra,60(sp)
    2d84:	03812403          	lw	s0,56(sp)
    2d88:	03412483          	lw	s1,52(sp)
    2d8c:	03012903          	lw	s2,48(sp)
    2d90:	02c12983          	lw	s3,44(sp)
    2d94:	02812a03          	lw	s4,40(sp)
    2d98:	02412a83          	lw	s5,36(sp)
    2d9c:	02012b03          	lw	s6,32(sp)
    2da0:	01c12b83          	lw	s7,28(sp)
    2da4:	01812c03          	lw	s8,24(sp)
    2da8:	01412c83          	lw	s9,20(sp)
    2dac:	01012d03          	lw	s10,16(sp)
    2db0:	00c12d83          	lw	s11,12(sp)
    2db4:	04010113          	addi	sp,sp,64
    2db8:	00008067          	ret
    2dbc:	010006b7          	lui	a3,0x1000
    2dc0:	01000713          	li	a4,16
    2dc4:	ecd668e3          	bltu	a2,a3,2c94 <__moddi3+0x98>
    2dc8:	01800713          	li	a4,24
    2dcc:	ec9ff06f          	j	2c94 <__moddi3+0x98>
    2dd0:	00000713          	li	a4,0
    2dd4:	00060c63          	beqz	a2,2dec <__moddi3+0x1f0>
    2dd8:	00010737          	lui	a4,0x10
    2ddc:	14e67e63          	bgeu	a2,a4,2f38 <__moddi3+0x33c>
    2de0:	10063713          	sltiu	a4,a2,256
    2de4:	00174713          	xori	a4,a4,1
    2de8:	00371713          	slli	a4,a4,0x3
    2dec:	00e656b3          	srl	a3,a2,a4
    2df0:	00d787b3          	add	a5,a5,a3
    2df4:	0007c783          	lbu	a5,0(a5)
    2df8:	40c58933          	sub	s2,a1,a2
    2dfc:	00e787b3          	add	a5,a5,a4
    2e00:	02000713          	li	a4,32
    2e04:	40f709b3          	sub	s3,a4,a5
    2e08:	0af70e63          	beq	a4,a5,2ec4 <__moddi3+0x2c8>
    2e0c:	01361a33          	sll	s4,a2,s3
    2e10:	00f5d933          	srl	s2,a1,a5
    2e14:	010a5b93          	srli	s7,s4,0x10
    2e18:	00f557b3          	srl	a5,a0,a5
    2e1c:	013595b3          	sll	a1,a1,s3
    2e20:	00b7eab3          	or	s5,a5,a1
    2e24:	01351433          	sll	s0,a0,s3
    2e28:	000b8593          	mv	a1,s7
    2e2c:	010a1b13          	slli	s6,s4,0x10
    2e30:	00090513          	mv	a0,s2
    2e34:	611000ef          	jal	ra,3c44 <__hidden___udivsi3>
    2e38:	010b5b13          	srli	s6,s6,0x10
    2e3c:	000b0593          	mv	a1,s6
    2e40:	5d9000ef          	jal	ra,3c18 <__mulsi3>
    2e44:	00050c13          	mv	s8,a0
    2e48:	000b8593          	mv	a1,s7
    2e4c:	00090513          	mv	a0,s2
    2e50:	63d000ef          	jal	ra,3c8c <__umodsi3>
    2e54:	01051513          	slli	a0,a0,0x10
    2e58:	010ad713          	srli	a4,s5,0x10
    2e5c:	00a76733          	or	a4,a4,a0
    2e60:	01877a63          	bgeu	a4,s8,2e74 <__moddi3+0x278>
    2e64:	00ea0733          	add	a4,s4,a4
    2e68:	01476663          	bltu	a4,s4,2e74 <__moddi3+0x278>
    2e6c:	01877463          	bgeu	a4,s8,2e74 <__moddi3+0x278>
    2e70:	01470733          	add	a4,a4,s4
    2e74:	41870c33          	sub	s8,a4,s8
    2e78:	000b8593          	mv	a1,s7
    2e7c:	000c0513          	mv	a0,s8
    2e80:	5c5000ef          	jal	ra,3c44 <__hidden___udivsi3>
    2e84:	000b0593          	mv	a1,s6
    2e88:	591000ef          	jal	ra,3c18 <__mulsi3>
    2e8c:	00050b13          	mv	s6,a0
    2e90:	000b8593          	mv	a1,s7
    2e94:	000c0513          	mv	a0,s8
    2e98:	5f5000ef          	jal	ra,3c8c <__umodsi3>
    2e9c:	010a9793          	slli	a5,s5,0x10
    2ea0:	01051513          	slli	a0,a0,0x10
    2ea4:	0107d793          	srli	a5,a5,0x10
    2ea8:	00a7e7b3          	or	a5,a5,a0
    2eac:	0167fa63          	bgeu	a5,s6,2ec0 <__moddi3+0x2c4>
    2eb0:	00fa07b3          	add	a5,s4,a5
    2eb4:	0147e663          	bltu	a5,s4,2ec0 <__moddi3+0x2c4>
    2eb8:	0167f463          	bgeu	a5,s6,2ec0 <__moddi3+0x2c4>
    2ebc:	014787b3          	add	a5,a5,s4
    2ec0:	41678933          	sub	s2,a5,s6
    2ec4:	010a5b13          	srli	s6,s4,0x10
    2ec8:	000b0593          	mv	a1,s6
    2ecc:	010a1b93          	slli	s7,s4,0x10
    2ed0:	00090513          	mv	a0,s2
    2ed4:	571000ef          	jal	ra,3c44 <__hidden___udivsi3>
    2ed8:	010bdb93          	srli	s7,s7,0x10
    2edc:	000b8593          	mv	a1,s7
    2ee0:	539000ef          	jal	ra,3c18 <__mulsi3>
    2ee4:	00050a93          	mv	s5,a0
    2ee8:	000b0593          	mv	a1,s6
    2eec:	00090513          	mv	a0,s2
    2ef0:	59d000ef          	jal	ra,3c8c <__umodsi3>
    2ef4:	01051513          	slli	a0,a0,0x10
    2ef8:	01045793          	srli	a5,s0,0x10
    2efc:	00a7e7b3          	or	a5,a5,a0
    2f00:	0157fa63          	bgeu	a5,s5,2f14 <__moddi3+0x318>
    2f04:	00fa07b3          	add	a5,s4,a5
    2f08:	0147e663          	bltu	a5,s4,2f14 <__moddi3+0x318>
    2f0c:	0157f463          	bgeu	a5,s5,2f14 <__moddi3+0x318>
    2f10:	014787b3          	add	a5,a5,s4
    2f14:	41578933          	sub	s2,a5,s5
    2f18:	000b0593          	mv	a1,s6
    2f1c:	00090513          	mv	a0,s2
    2f20:	525000ef          	jal	ra,3c44 <__hidden___udivsi3>
    2f24:	000b8593          	mv	a1,s7
    2f28:	4f1000ef          	jal	ra,3c18 <__mulsi3>
    2f2c:	00050a93          	mv	s5,a0
    2f30:	000b0593          	mv	a1,s6
    2f34:	e01ff06f          	j	2d34 <__moddi3+0x138>
    2f38:	010006b7          	lui	a3,0x1000
    2f3c:	01000713          	li	a4,16
    2f40:	ead666e3          	bltu	a2,a3,2dec <__moddi3+0x1f0>
    2f44:	01800713          	li	a4,24
    2f48:	ea5ff06f          	j	2dec <__moddi3+0x1f0>
    2f4c:	e2d5e0e3          	bltu	a1,a3,2d6c <__moddi3+0x170>
    2f50:	000107b7          	lui	a5,0x10
    2f54:	04f6fe63          	bgeu	a3,a5,2fb0 <__moddi3+0x3b4>
    2f58:	1006b793          	sltiu	a5,a3,256
    2f5c:	0017c793          	xori	a5,a5,1
    2f60:	00379793          	slli	a5,a5,0x3
    2f64:	00004737          	lui	a4,0x4
    2f68:	00f6d833          	srl	a6,a3,a5
    2f6c:	f4470713          	addi	a4,a4,-188 # 3f44 <__clz_tab>
    2f70:	01070733          	add	a4,a4,a6
    2f74:	00074a83          	lbu	s5,0(a4)
    2f78:	00fa8ab3          	add	s5,s5,a5
    2f7c:	02000793          	li	a5,32
    2f80:	415789b3          	sub	s3,a5,s5
    2f84:	05579063          	bne	a5,s5,2fc4 <__moddi3+0x3c8>
    2f88:	00b6e463          	bltu	a3,a1,2f90 <__moddi3+0x394>
    2f8c:	00c56c63          	bltu	a0,a2,2fa4 <__moddi3+0x3a8>
    2f90:	40c50933          	sub	s2,a0,a2
    2f94:	40d586b3          	sub	a3,a1,a3
    2f98:	012535b3          	sltu	a1,a0,s2
    2f9c:	00090413          	mv	s0,s2
    2fa0:	40b68b33          	sub	s6,a3,a1
    2fa4:	00040513          	mv	a0,s0
    2fa8:	000b0593          	mv	a1,s6
    2fac:	dc1ff06f          	j	2d6c <__moddi3+0x170>
    2fb0:	01000737          	lui	a4,0x1000
    2fb4:	01000793          	li	a5,16
    2fb8:	fae6e6e3          	bltu	a3,a4,2f64 <__moddi3+0x368>
    2fbc:	01800793          	li	a5,24
    2fc0:	fa5ff06f          	j	2f64 <__moddi3+0x368>
    2fc4:	013696b3          	sll	a3,a3,s3
    2fc8:	01565bb3          	srl	s7,a2,s5
    2fcc:	00dbebb3          	or	s7,s7,a3
    2fd0:	0155db33          	srl	s6,a1,s5
    2fd4:	01555433          	srl	s0,a0,s5
    2fd8:	013595b3          	sll	a1,a1,s3
    2fdc:	010bdc13          	srli	s8,s7,0x10
    2fe0:	00b46433          	or	s0,s0,a1
    2fe4:	01351a33          	sll	s4,a0,s3
    2fe8:	000c0593          	mv	a1,s8
    2fec:	000b0513          	mv	a0,s6
    2ff0:	010b9c93          	slli	s9,s7,0x10
    2ff4:	01361933          	sll	s2,a2,s3
    2ff8:	010cdc93          	srli	s9,s9,0x10
    2ffc:	449000ef          	jal	ra,3c44 <__hidden___udivsi3>
    3000:	00050593          	mv	a1,a0
    3004:	00050d93          	mv	s11,a0
    3008:	000c8513          	mv	a0,s9
    300c:	40d000ef          	jal	ra,3c18 <__mulsi3>
    3010:	00050d13          	mv	s10,a0
    3014:	000c0593          	mv	a1,s8
    3018:	000b0513          	mv	a0,s6
    301c:	471000ef          	jal	ra,3c8c <__umodsi3>
    3020:	01051513          	slli	a0,a0,0x10
    3024:	01045793          	srli	a5,s0,0x10
    3028:	00a7e7b3          	or	a5,a5,a0
    302c:	000d8b13          	mv	s6,s11
    3030:	01a7fe63          	bgeu	a5,s10,304c <__moddi3+0x450>
    3034:	00fb87b3          	add	a5,s7,a5
    3038:	fffd8b13          	addi	s6,s11,-1
    303c:	0177e863          	bltu	a5,s7,304c <__moddi3+0x450>
    3040:	01a7f663          	bgeu	a5,s10,304c <__moddi3+0x450>
    3044:	ffed8b13          	addi	s6,s11,-2
    3048:	017787b3          	add	a5,a5,s7
    304c:	41a78d33          	sub	s10,a5,s10
    3050:	000c0593          	mv	a1,s8
    3054:	000d0513          	mv	a0,s10
    3058:	3ed000ef          	jal	ra,3c44 <__hidden___udivsi3>
    305c:	00050593          	mv	a1,a0
    3060:	00050d93          	mv	s11,a0
    3064:	000c8513          	mv	a0,s9
    3068:	3b1000ef          	jal	ra,3c18 <__mulsi3>
    306c:	000c0593          	mv	a1,s8
    3070:	00050c93          	mv	s9,a0
    3074:	000d0513          	mv	a0,s10
    3078:	415000ef          	jal	ra,3c8c <__umodsi3>
    307c:	01041593          	slli	a1,s0,0x10
    3080:	01051513          	slli	a0,a0,0x10
    3084:	0105d593          	srli	a1,a1,0x10
    3088:	00a5e5b3          	or	a1,a1,a0
    308c:	000d8713          	mv	a4,s11
    3090:	0195fe63          	bgeu	a1,s9,30ac <__moddi3+0x4b0>
    3094:	00bb85b3          	add	a1,s7,a1
    3098:	fffd8713          	addi	a4,s11,-1
    309c:	0175e863          	bltu	a1,s7,30ac <__moddi3+0x4b0>
    30a0:	0195f663          	bgeu	a1,s9,30ac <__moddi3+0x4b0>
    30a4:	ffed8713          	addi	a4,s11,-2
    30a8:	017585b3          	add	a1,a1,s7
    30ac:	00010337          	lui	t1,0x10
    30b0:	010b1b13          	slli	s6,s6,0x10
    30b4:	00eb6b33          	or	s6,s6,a4
    30b8:	fff30713          	addi	a4,t1,-1 # ffff <fromhost+0xfbf>
    30bc:	00eb7e33          	and	t3,s6,a4
    30c0:	00e97733          	and	a4,s2,a4
    30c4:	419587b3          	sub	a5,a1,s9
    30c8:	010b5b13          	srli	s6,s6,0x10
    30cc:	01095893          	srli	a7,s2,0x10
    30d0:	000e0513          	mv	a0,t3
    30d4:	00070593          	mv	a1,a4
    30d8:	341000ef          	jal	ra,3c18 <__mulsi3>
    30dc:	00050813          	mv	a6,a0
    30e0:	00088593          	mv	a1,a7
    30e4:	000e0513          	mv	a0,t3
    30e8:	331000ef          	jal	ra,3c18 <__mulsi3>
    30ec:	00050413          	mv	s0,a0
    30f0:	00070593          	mv	a1,a4
    30f4:	000b0513          	mv	a0,s6
    30f8:	321000ef          	jal	ra,3c18 <__mulsi3>
    30fc:	00050713          	mv	a4,a0
    3100:	00088593          	mv	a1,a7
    3104:	000b0513          	mv	a0,s6
    3108:	311000ef          	jal	ra,3c18 <__mulsi3>
    310c:	00e40433          	add	s0,s0,a4
    3110:	01085693          	srli	a3,a6,0x10
    3114:	00d40433          	add	s0,s0,a3
    3118:	00e47463          	bgeu	s0,a4,3120 <__moddi3+0x524>
    311c:	00650533          	add	a0,a0,t1
    3120:	000106b7          	lui	a3,0x10
    3124:	fff68693          	addi	a3,a3,-1 # ffff <fromhost+0xfbf>
    3128:	01045713          	srli	a4,s0,0x10
    312c:	00d47433          	and	s0,s0,a3
    3130:	01041413          	slli	s0,s0,0x10
    3134:	00d87833          	and	a6,a6,a3
    3138:	00a70733          	add	a4,a4,a0
    313c:	01040433          	add	s0,s0,a6
    3140:	00e7e663          	bltu	a5,a4,314c <__moddi3+0x550>
    3144:	00e79e63          	bne	a5,a4,3160 <__moddi3+0x564>
    3148:	008a7c63          	bgeu	s4,s0,3160 <__moddi3+0x564>
    314c:	41240933          	sub	s2,s0,s2
    3150:	012436b3          	sltu	a3,s0,s2
    3154:	017686b3          	add	a3,a3,s7
    3158:	00090413          	mv	s0,s2
    315c:	40d70733          	sub	a4,a4,a3
    3160:	408a0433          	sub	s0,s4,s0
    3164:	008a3a33          	sltu	s4,s4,s0
    3168:	40e785b3          	sub	a1,a5,a4
    316c:	414585b3          	sub	a1,a1,s4
    3170:	01559ab3          	sll	s5,a1,s5
    3174:	01345433          	srl	s0,s0,s3
    3178:	008ae533          	or	a0,s5,s0
    317c:	0135d5b3          	srl	a1,a1,s3
    3180:	bedff06f          	j	2d6c <__moddi3+0x170>

00003184 <__udivdi3>:
    3184:	fd010113          	addi	sp,sp,-48
    3188:	01412c23          	sw	s4,24(sp)
    318c:	02112623          	sw	ra,44(sp)
    3190:	02812423          	sw	s0,40(sp)
    3194:	02912223          	sw	s1,36(sp)
    3198:	03212023          	sw	s2,32(sp)
    319c:	01312e23          	sw	s3,28(sp)
    31a0:	01512a23          	sw	s5,20(sp)
    31a4:	01612823          	sw	s6,16(sp)
    31a8:	01712623          	sw	s7,12(sp)
    31ac:	01812423          	sw	s8,8(sp)
    31b0:	01912223          	sw	s9,4(sp)
    31b4:	00050a13          	mv	s4,a0
    31b8:	38069463          	bnez	a3,3540 <__udivdi3+0x3bc>
    31bc:	000047b7          	lui	a5,0x4
    31c0:	00060993          	mv	s3,a2
    31c4:	00050493          	mv	s1,a0
    31c8:	f4478793          	addi	a5,a5,-188 # 3f44 <__clz_tab>
    31cc:	12c5f863          	bgeu	a1,a2,32fc <__udivdi3+0x178>
    31d0:	00010737          	lui	a4,0x10
    31d4:	00058913          	mv	s2,a1
    31d8:	10e67863          	bgeu	a2,a4,32e8 <__udivdi3+0x164>
    31dc:	10063713          	sltiu	a4,a2,256
    31e0:	00174713          	xori	a4,a4,1
    31e4:	00371713          	slli	a4,a4,0x3
    31e8:	00e656b3          	srl	a3,a2,a4
    31ec:	00d787b3          	add	a5,a5,a3
    31f0:	0007c783          	lbu	a5,0(a5)
    31f4:	02000693          	li	a3,32
    31f8:	00e787b3          	add	a5,a5,a4
    31fc:	40f68733          	sub	a4,a3,a5
    3200:	00f68c63          	beq	a3,a5,3218 <__udivdi3+0x94>
    3204:	00e59933          	sll	s2,a1,a4
    3208:	00fa57b3          	srl	a5,s4,a5
    320c:	00e619b3          	sll	s3,a2,a4
    3210:	0127e933          	or	s2,a5,s2
    3214:	00ea14b3          	sll	s1,s4,a4
    3218:	0109da93          	srli	s5,s3,0x10
    321c:	000a8593          	mv	a1,s5
    3220:	00090513          	mv	a0,s2
    3224:	01099b13          	slli	s6,s3,0x10
    3228:	21d000ef          	jal	ra,3c44 <__hidden___udivsi3>
    322c:	010b5b13          	srli	s6,s6,0x10
    3230:	00050593          	mv	a1,a0
    3234:	00050a13          	mv	s4,a0
    3238:	000b0513          	mv	a0,s6
    323c:	1dd000ef          	jal	ra,3c18 <__mulsi3>
    3240:	00050413          	mv	s0,a0
    3244:	000a8593          	mv	a1,s5
    3248:	00090513          	mv	a0,s2
    324c:	241000ef          	jal	ra,3c8c <__umodsi3>
    3250:	01051513          	slli	a0,a0,0x10
    3254:	0104d713          	srli	a4,s1,0x10
    3258:	00a76733          	or	a4,a4,a0
    325c:	000a0913          	mv	s2,s4
    3260:	00877e63          	bgeu	a4,s0,327c <__udivdi3+0xf8>
    3264:	00e98733          	add	a4,s3,a4
    3268:	fffa0913          	addi	s2,s4,-1
    326c:	01376863          	bltu	a4,s3,327c <__udivdi3+0xf8>
    3270:	00877663          	bgeu	a4,s0,327c <__udivdi3+0xf8>
    3274:	ffea0913          	addi	s2,s4,-2
    3278:	01370733          	add	a4,a4,s3
    327c:	40870433          	sub	s0,a4,s0
    3280:	000a8593          	mv	a1,s5
    3284:	00040513          	mv	a0,s0
    3288:	1bd000ef          	jal	ra,3c44 <__hidden___udivsi3>
    328c:	00050593          	mv	a1,a0
    3290:	00050a13          	mv	s4,a0
    3294:	000b0513          	mv	a0,s6
    3298:	181000ef          	jal	ra,3c18 <__mulsi3>
    329c:	00050b13          	mv	s6,a0
    32a0:	000a8593          	mv	a1,s5
    32a4:	00040513          	mv	a0,s0
    32a8:	1e5000ef          	jal	ra,3c8c <__umodsi3>
    32ac:	01049493          	slli	s1,s1,0x10
    32b0:	01051513          	slli	a0,a0,0x10
    32b4:	0104d493          	srli	s1,s1,0x10
    32b8:	00a4e4b3          	or	s1,s1,a0
    32bc:	000a0713          	mv	a4,s4
    32c0:	0164fc63          	bgeu	s1,s6,32d8 <__udivdi3+0x154>
    32c4:	009984b3          	add	s1,s3,s1
    32c8:	fffa0713          	addi	a4,s4,-1
    32cc:	0134e663          	bltu	s1,s3,32d8 <__udivdi3+0x154>
    32d0:	0164f463          	bgeu	s1,s6,32d8 <__udivdi3+0x154>
    32d4:	ffea0713          	addi	a4,s4,-2
    32d8:	01091793          	slli	a5,s2,0x10
    32dc:	00e7e7b3          	or	a5,a5,a4
    32e0:	00000913          	li	s2,0
    32e4:	1200006f          	j	3404 <__udivdi3+0x280>
    32e8:	010006b7          	lui	a3,0x1000
    32ec:	01000713          	li	a4,16
    32f0:	eed66ce3          	bltu	a2,a3,31e8 <__udivdi3+0x64>
    32f4:	01800713          	li	a4,24
    32f8:	ef1ff06f          	j	31e8 <__udivdi3+0x64>
    32fc:	00000713          	li	a4,0
    3300:	00060c63          	beqz	a2,3318 <__udivdi3+0x194>
    3304:	00010737          	lui	a4,0x10
    3308:	12e67c63          	bgeu	a2,a4,3440 <__udivdi3+0x2bc>
    330c:	10063713          	sltiu	a4,a2,256
    3310:	00174713          	xori	a4,a4,1
    3314:	00371713          	slli	a4,a4,0x3
    3318:	00e656b3          	srl	a3,a2,a4
    331c:	00d787b3          	add	a5,a5,a3
    3320:	0007c783          	lbu	a5,0(a5)
    3324:	02000693          	li	a3,32
    3328:	00e787b3          	add	a5,a5,a4
    332c:	40f68733          	sub	a4,a3,a5
    3330:	12f69263          	bne	a3,a5,3454 <__udivdi3+0x2d0>
    3334:	40c58a33          	sub	s4,a1,a2
    3338:	00100913          	li	s2,1
    333c:	0109db13          	srli	s6,s3,0x10
    3340:	000b0593          	mv	a1,s6
    3344:	000a0513          	mv	a0,s4
    3348:	01099b93          	slli	s7,s3,0x10
    334c:	0f9000ef          	jal	ra,3c44 <__hidden___udivsi3>
    3350:	010bdb93          	srli	s7,s7,0x10
    3354:	00050593          	mv	a1,a0
    3358:	00050c13          	mv	s8,a0
    335c:	000b8513          	mv	a0,s7
    3360:	0b9000ef          	jal	ra,3c18 <__mulsi3>
    3364:	00050a93          	mv	s5,a0
    3368:	000b0593          	mv	a1,s6
    336c:	000a0513          	mv	a0,s4
    3370:	11d000ef          	jal	ra,3c8c <__umodsi3>
    3374:	01051513          	slli	a0,a0,0x10
    3378:	0104d713          	srli	a4,s1,0x10
    337c:	00a76733          	or	a4,a4,a0
    3380:	000c0a13          	mv	s4,s8
    3384:	01577e63          	bgeu	a4,s5,33a0 <__udivdi3+0x21c>
    3388:	00e98733          	add	a4,s3,a4
    338c:	fffc0a13          	addi	s4,s8,-1
    3390:	01376863          	bltu	a4,s3,33a0 <__udivdi3+0x21c>
    3394:	01577663          	bgeu	a4,s5,33a0 <__udivdi3+0x21c>
    3398:	ffec0a13          	addi	s4,s8,-2
    339c:	01370733          	add	a4,a4,s3
    33a0:	41570433          	sub	s0,a4,s5
    33a4:	000b0593          	mv	a1,s6
    33a8:	00040513          	mv	a0,s0
    33ac:	099000ef          	jal	ra,3c44 <__hidden___udivsi3>
    33b0:	00050593          	mv	a1,a0
    33b4:	00050a93          	mv	s5,a0
    33b8:	000b8513          	mv	a0,s7
    33bc:	05d000ef          	jal	ra,3c18 <__mulsi3>
    33c0:	00050b93          	mv	s7,a0
    33c4:	000b0593          	mv	a1,s6
    33c8:	00040513          	mv	a0,s0
    33cc:	0c1000ef          	jal	ra,3c8c <__umodsi3>
    33d0:	01049493          	slli	s1,s1,0x10
    33d4:	01051513          	slli	a0,a0,0x10
    33d8:	0104d493          	srli	s1,s1,0x10
    33dc:	00a4e4b3          	or	s1,s1,a0
    33e0:	000a8713          	mv	a4,s5
    33e4:	0174fc63          	bgeu	s1,s7,33fc <__udivdi3+0x278>
    33e8:	009984b3          	add	s1,s3,s1
    33ec:	fffa8713          	addi	a4,s5,-1
    33f0:	0134e663          	bltu	s1,s3,33fc <__udivdi3+0x278>
    33f4:	0174f463          	bgeu	s1,s7,33fc <__udivdi3+0x278>
    33f8:	ffea8713          	addi	a4,s5,-2
    33fc:	010a1793          	slli	a5,s4,0x10
    3400:	00e7e7b3          	or	a5,a5,a4
    3404:	02c12083          	lw	ra,44(sp)
    3408:	02812403          	lw	s0,40(sp)
    340c:	02412483          	lw	s1,36(sp)
    3410:	01c12983          	lw	s3,28(sp)
    3414:	01812a03          	lw	s4,24(sp)
    3418:	01412a83          	lw	s5,20(sp)
    341c:	01012b03          	lw	s6,16(sp)
    3420:	00c12b83          	lw	s7,12(sp)
    3424:	00812c03          	lw	s8,8(sp)
    3428:	00412c83          	lw	s9,4(sp)
    342c:	00090593          	mv	a1,s2
    3430:	00078513          	mv	a0,a5
    3434:	02012903          	lw	s2,32(sp)
    3438:	03010113          	addi	sp,sp,48
    343c:	00008067          	ret
    3440:	010006b7          	lui	a3,0x1000
    3444:	01000713          	li	a4,16
    3448:	ecd668e3          	bltu	a2,a3,3318 <__udivdi3+0x194>
    344c:	01800713          	li	a4,24
    3450:	ec9ff06f          	j	3318 <__udivdi3+0x194>
    3454:	00e619b3          	sll	s3,a2,a4
    3458:	00f5d933          	srl	s2,a1,a5
    345c:	0109db93          	srli	s7,s3,0x10
    3460:	00e595b3          	sll	a1,a1,a4
    3464:	00fa57b3          	srl	a5,s4,a5
    3468:	00b7eab3          	or	s5,a5,a1
    346c:	00ea14b3          	sll	s1,s4,a4
    3470:	000b8593          	mv	a1,s7
    3474:	00090513          	mv	a0,s2
    3478:	01099a13          	slli	s4,s3,0x10
    347c:	7c8000ef          	jal	ra,3c44 <__hidden___udivsi3>
    3480:	010a5a13          	srli	s4,s4,0x10
    3484:	00050593          	mv	a1,a0
    3488:	00050b13          	mv	s6,a0
    348c:	000a0513          	mv	a0,s4
    3490:	788000ef          	jal	ra,3c18 <__mulsi3>
    3494:	00050413          	mv	s0,a0
    3498:	000b8593          	mv	a1,s7
    349c:	00090513          	mv	a0,s2
    34a0:	7ec000ef          	jal	ra,3c8c <__umodsi3>
    34a4:	01051513          	slli	a0,a0,0x10
    34a8:	010ad713          	srli	a4,s5,0x10
    34ac:	00a76733          	or	a4,a4,a0
    34b0:	000b0913          	mv	s2,s6
    34b4:	00877e63          	bgeu	a4,s0,34d0 <__udivdi3+0x34c>
    34b8:	00e98733          	add	a4,s3,a4
    34bc:	fffb0913          	addi	s2,s6,-1
    34c0:	01376863          	bltu	a4,s3,34d0 <__udivdi3+0x34c>
    34c4:	00877663          	bgeu	a4,s0,34d0 <__udivdi3+0x34c>
    34c8:	ffeb0913          	addi	s2,s6,-2
    34cc:	01370733          	add	a4,a4,s3
    34d0:	40870433          	sub	s0,a4,s0
    34d4:	000b8593          	mv	a1,s7
    34d8:	00040513          	mv	a0,s0
    34dc:	768000ef          	jal	ra,3c44 <__hidden___udivsi3>
    34e0:	00050593          	mv	a1,a0
    34e4:	00050b13          	mv	s6,a0
    34e8:	000a0513          	mv	a0,s4
    34ec:	72c000ef          	jal	ra,3c18 <__mulsi3>
    34f0:	00050a13          	mv	s4,a0
    34f4:	000b8593          	mv	a1,s7
    34f8:	00040513          	mv	a0,s0
    34fc:	790000ef          	jal	ra,3c8c <__umodsi3>
    3500:	010a9793          	slli	a5,s5,0x10
    3504:	01051513          	slli	a0,a0,0x10
    3508:	0107d793          	srli	a5,a5,0x10
    350c:	00a7e7b3          	or	a5,a5,a0
    3510:	000b0713          	mv	a4,s6
    3514:	0147fe63          	bgeu	a5,s4,3530 <__udivdi3+0x3ac>
    3518:	00f987b3          	add	a5,s3,a5
    351c:	fffb0713          	addi	a4,s6,-1
    3520:	0137e863          	bltu	a5,s3,3530 <__udivdi3+0x3ac>
    3524:	0147f663          	bgeu	a5,s4,3530 <__udivdi3+0x3ac>
    3528:	ffeb0713          	addi	a4,s6,-2
    352c:	013787b3          	add	a5,a5,s3
    3530:	01091913          	slli	s2,s2,0x10
    3534:	41478a33          	sub	s4,a5,s4
    3538:	00e96933          	or	s2,s2,a4
    353c:	e01ff06f          	j	333c <__udivdi3+0x1b8>
    3540:	1ed5ee63          	bltu	a1,a3,373c <__udivdi3+0x5b8>
    3544:	000107b7          	lui	a5,0x10
    3548:	04f6f463          	bgeu	a3,a5,3590 <__udivdi3+0x40c>
    354c:	1006b713          	sltiu	a4,a3,256
    3550:	00174713          	xori	a4,a4,1
    3554:	00371713          	slli	a4,a4,0x3
    3558:	000047b7          	lui	a5,0x4
    355c:	00e6d533          	srl	a0,a3,a4
    3560:	f4478793          	addi	a5,a5,-188 # 3f44 <__clz_tab>
    3564:	00a787b3          	add	a5,a5,a0
    3568:	0007c803          	lbu	a6,0(a5)
    356c:	02000793          	li	a5,32
    3570:	00e80833          	add	a6,a6,a4
    3574:	41078933          	sub	s2,a5,a6
    3578:	03079663          	bne	a5,a6,35a4 <__udivdi3+0x420>
    357c:	00100793          	li	a5,1
    3580:	e8b6e2e3          	bltu	a3,a1,3404 <__udivdi3+0x280>
    3584:	00ca37b3          	sltu	a5,s4,a2
    3588:	0017c793          	xori	a5,a5,1
    358c:	e79ff06f          	j	3404 <__udivdi3+0x280>
    3590:	010007b7          	lui	a5,0x1000
    3594:	01000713          	li	a4,16
    3598:	fcf6e0e3          	bltu	a3,a5,3558 <__udivdi3+0x3d4>
    359c:	01800713          	li	a4,24
    35a0:	fb9ff06f          	j	3558 <__udivdi3+0x3d4>
    35a4:	012696b3          	sll	a3,a3,s2
    35a8:	01065b33          	srl	s6,a2,a6
    35ac:	00db6b33          	or	s6,s6,a3
    35b0:	0105d4b3          	srl	s1,a1,a6
    35b4:	010b5c13          	srli	s8,s6,0x10
    35b8:	010a5833          	srl	a6,s4,a6
    35bc:	012595b3          	sll	a1,a1,s2
    35c0:	00b869b3          	or	s3,a6,a1
    35c4:	00048513          	mv	a0,s1
    35c8:	000c0593          	mv	a1,s8
    35cc:	010b1b93          	slli	s7,s6,0x10
    35d0:	01261433          	sll	s0,a2,s2
    35d4:	010bdb93          	srli	s7,s7,0x10
    35d8:	66c000ef          	jal	ra,3c44 <__hidden___udivsi3>
    35dc:	00050593          	mv	a1,a0
    35e0:	00050c93          	mv	s9,a0
    35e4:	000b8513          	mv	a0,s7
    35e8:	630000ef          	jal	ra,3c18 <__mulsi3>
    35ec:	00050a93          	mv	s5,a0
    35f0:	000c0593          	mv	a1,s8
    35f4:	00048513          	mv	a0,s1
    35f8:	694000ef          	jal	ra,3c8c <__umodsi3>
    35fc:	01051513          	slli	a0,a0,0x10
    3600:	0109d693          	srli	a3,s3,0x10
    3604:	00a6e6b3          	or	a3,a3,a0
    3608:	000c8493          	mv	s1,s9
    360c:	0156fe63          	bgeu	a3,s5,3628 <__udivdi3+0x4a4>
    3610:	00db06b3          	add	a3,s6,a3
    3614:	fffc8493          	addi	s1,s9,-1
    3618:	0166e863          	bltu	a3,s6,3628 <__udivdi3+0x4a4>
    361c:	0156f663          	bgeu	a3,s5,3628 <__udivdi3+0x4a4>
    3620:	ffec8493          	addi	s1,s9,-2
    3624:	016686b3          	add	a3,a3,s6
    3628:	41568ab3          	sub	s5,a3,s5
    362c:	000c0593          	mv	a1,s8
    3630:	000a8513          	mv	a0,s5
    3634:	610000ef          	jal	ra,3c44 <__hidden___udivsi3>
    3638:	00050593          	mv	a1,a0
    363c:	00050c93          	mv	s9,a0
    3640:	000b8513          	mv	a0,s7
    3644:	5d4000ef          	jal	ra,3c18 <__mulsi3>
    3648:	00050b93          	mv	s7,a0
    364c:	000c0593          	mv	a1,s8
    3650:	000a8513          	mv	a0,s5
    3654:	638000ef          	jal	ra,3c8c <__umodsi3>
    3658:	01099713          	slli	a4,s3,0x10
    365c:	01051513          	slli	a0,a0,0x10
    3660:	01075713          	srli	a4,a4,0x10
    3664:	00a76733          	or	a4,a4,a0
    3668:	000c8693          	mv	a3,s9
    366c:	01777e63          	bgeu	a4,s7,3688 <__udivdi3+0x504>
    3670:	00eb0733          	add	a4,s6,a4
    3674:	fffc8693          	addi	a3,s9,-1
    3678:	01676863          	bltu	a4,s6,3688 <__udivdi3+0x504>
    367c:	01777663          	bgeu	a4,s7,3688 <__udivdi3+0x504>
    3680:	ffec8693          	addi	a3,s9,-2
    3684:	01670733          	add	a4,a4,s6
    3688:	01049793          	slli	a5,s1,0x10
    368c:	00010e37          	lui	t3,0x10
    3690:	00d7e7b3          	or	a5,a5,a3
    3694:	fffe0313          	addi	t1,t3,-1 # ffff <fromhost+0xfbf>
    3698:	0067f8b3          	and	a7,a5,t1
    369c:	00647333          	and	t1,s0,t1
    36a0:	41770733          	sub	a4,a4,s7
    36a4:	0107de93          	srli	t4,a5,0x10
    36a8:	01045413          	srli	s0,s0,0x10
    36ac:	00088513          	mv	a0,a7
    36b0:	00030593          	mv	a1,t1
    36b4:	564000ef          	jal	ra,3c18 <__mulsi3>
    36b8:	00050813          	mv	a6,a0
    36bc:	00040593          	mv	a1,s0
    36c0:	00088513          	mv	a0,a7
    36c4:	554000ef          	jal	ra,3c18 <__mulsi3>
    36c8:	00050893          	mv	a7,a0
    36cc:	00030593          	mv	a1,t1
    36d0:	000e8513          	mv	a0,t4
    36d4:	544000ef          	jal	ra,3c18 <__mulsi3>
    36d8:	00050313          	mv	t1,a0
    36dc:	00040593          	mv	a1,s0
    36e0:	000e8513          	mv	a0,t4
    36e4:	534000ef          	jal	ra,3c18 <__mulsi3>
    36e8:	01085693          	srli	a3,a6,0x10
    36ec:	006888b3          	add	a7,a7,t1
    36f0:	011686b3          	add	a3,a3,a7
    36f4:	00050613          	mv	a2,a0
    36f8:	0066f463          	bgeu	a3,t1,3700 <__udivdi3+0x57c>
    36fc:	01c50633          	add	a2,a0,t3
    3700:	0106d593          	srli	a1,a3,0x10
    3704:	00c58633          	add	a2,a1,a2
    3708:	02c76663          	bltu	a4,a2,3734 <__udivdi3+0x5b0>
    370c:	bcc71ae3          	bne	a4,a2,32e0 <__udivdi3+0x15c>
    3710:	00010637          	lui	a2,0x10
    3714:	fff60613          	addi	a2,a2,-1 # ffff <fromhost+0xfbf>
    3718:	00c6f6b3          	and	a3,a3,a2
    371c:	01069693          	slli	a3,a3,0x10
    3720:	00c87833          	and	a6,a6,a2
    3724:	012a1733          	sll	a4,s4,s2
    3728:	010686b3          	add	a3,a3,a6
    372c:	00000913          	li	s2,0
    3730:	ccd77ae3          	bgeu	a4,a3,3404 <__udivdi3+0x280>
    3734:	fff78793          	addi	a5,a5,-1 # ffffff <fromhost+0xff0fbf>
    3738:	ba9ff06f          	j	32e0 <__udivdi3+0x15c>
    373c:	00000913          	li	s2,0
    3740:	00000793          	li	a5,0
    3744:	cc1ff06f          	j	3404 <__udivdi3+0x280>

00003748 <__umoddi3>:
    3748:	fd010113          	addi	sp,sp,-48
    374c:	02812423          	sw	s0,40(sp)
    3750:	02912223          	sw	s1,36(sp)
    3754:	02112623          	sw	ra,44(sp)
    3758:	03212023          	sw	s2,32(sp)
    375c:	01312e23          	sw	s3,28(sp)
    3760:	01412c23          	sw	s4,24(sp)
    3764:	01512a23          	sw	s5,20(sp)
    3768:	01612823          	sw	s6,16(sp)
    376c:	01712623          	sw	s7,12(sp)
    3770:	01812423          	sw	s8,8(sp)
    3774:	01912223          	sw	s9,4(sp)
    3778:	01a12023          	sw	s10,0(sp)
    377c:	00050413          	mv	s0,a0
    3780:	00058493          	mv	s1,a1
    3784:	24069c63          	bnez	a3,39dc <__umoddi3+0x294>
    3788:	000047b7          	lui	a5,0x4
    378c:	00060993          	mv	s3,a2
    3790:	f4478793          	addi	a5,a5,-188 # 3f44 <__clz_tab>
    3794:	12c5fe63          	bgeu	a1,a2,38d0 <__umoddi3+0x188>
    3798:	00010737          	lui	a4,0x10
    379c:	12e67063          	bgeu	a2,a4,38bc <__umoddi3+0x174>
    37a0:	10063713          	sltiu	a4,a2,256
    37a4:	00174713          	xori	a4,a4,1
    37a8:	00371713          	slli	a4,a4,0x3
    37ac:	00e656b3          	srl	a3,a2,a4
    37b0:	00d787b3          	add	a5,a5,a3
    37b4:	0007c783          	lbu	a5,0(a5)
    37b8:	00e787b3          	add	a5,a5,a4
    37bc:	02000713          	li	a4,32
    37c0:	40f70933          	sub	s2,a4,a5
    37c4:	00f70c63          	beq	a4,a5,37dc <__umoddi3+0x94>
    37c8:	012594b3          	sll	s1,a1,s2
    37cc:	00f557b3          	srl	a5,a0,a5
    37d0:	012619b3          	sll	s3,a2,s2
    37d4:	0097e4b3          	or	s1,a5,s1
    37d8:	01251433          	sll	s0,a0,s2
    37dc:	0109da93          	srli	s5,s3,0x10
    37e0:	000a8593          	mv	a1,s5
    37e4:	01099b13          	slli	s6,s3,0x10
    37e8:	00048513          	mv	a0,s1
    37ec:	458000ef          	jal	ra,3c44 <__hidden___udivsi3>
    37f0:	010b5b13          	srli	s6,s6,0x10
    37f4:	000b0593          	mv	a1,s6
    37f8:	420000ef          	jal	ra,3c18 <__mulsi3>
    37fc:	00050a13          	mv	s4,a0
    3800:	000a8593          	mv	a1,s5
    3804:	00048513          	mv	a0,s1
    3808:	484000ef          	jal	ra,3c8c <__umodsi3>
    380c:	01051513          	slli	a0,a0,0x10
    3810:	01045793          	srli	a5,s0,0x10
    3814:	00a7e7b3          	or	a5,a5,a0
    3818:	0147fa63          	bgeu	a5,s4,382c <__umoddi3+0xe4>
    381c:	00f987b3          	add	a5,s3,a5
    3820:	0137e663          	bltu	a5,s3,382c <__umoddi3+0xe4>
    3824:	0147f463          	bgeu	a5,s4,382c <__umoddi3+0xe4>
    3828:	013787b3          	add	a5,a5,s3
    382c:	414784b3          	sub	s1,a5,s4
    3830:	000a8593          	mv	a1,s5
    3834:	00048513          	mv	a0,s1
    3838:	40c000ef          	jal	ra,3c44 <__hidden___udivsi3>
    383c:	000b0593          	mv	a1,s6
    3840:	3d8000ef          	jal	ra,3c18 <__mulsi3>
    3844:	00050a13          	mv	s4,a0
    3848:	000a8593          	mv	a1,s5
    384c:	00048513          	mv	a0,s1
    3850:	43c000ef          	jal	ra,3c8c <__umodsi3>
    3854:	01041413          	slli	s0,s0,0x10
    3858:	01051513          	slli	a0,a0,0x10
    385c:	01045413          	srli	s0,s0,0x10
    3860:	00a46433          	or	s0,s0,a0
    3864:	01447a63          	bgeu	s0,s4,3878 <__umoddi3+0x130>
    3868:	00898433          	add	s0,s3,s0
    386c:	01346663          	bltu	s0,s3,3878 <__umoddi3+0x130>
    3870:	01447463          	bgeu	s0,s4,3878 <__umoddi3+0x130>
    3874:	01340433          	add	s0,s0,s3
    3878:	41440433          	sub	s0,s0,s4
    387c:	01245533          	srl	a0,s0,s2
    3880:	00000593          	li	a1,0
    3884:	02c12083          	lw	ra,44(sp)
    3888:	02812403          	lw	s0,40(sp)
    388c:	02412483          	lw	s1,36(sp)
    3890:	02012903          	lw	s2,32(sp)
    3894:	01c12983          	lw	s3,28(sp)
    3898:	01812a03          	lw	s4,24(sp)
    389c:	01412a83          	lw	s5,20(sp)
    38a0:	01012b03          	lw	s6,16(sp)
    38a4:	00c12b83          	lw	s7,12(sp)
    38a8:	00812c03          	lw	s8,8(sp)
    38ac:	00412c83          	lw	s9,4(sp)
    38b0:	00012d03          	lw	s10,0(sp)
    38b4:	03010113          	addi	sp,sp,48
    38b8:	00008067          	ret
    38bc:	010006b7          	lui	a3,0x1000
    38c0:	01000713          	li	a4,16
    38c4:	eed664e3          	bltu	a2,a3,37ac <__umoddi3+0x64>
    38c8:	01800713          	li	a4,24
    38cc:	ee1ff06f          	j	37ac <__umoddi3+0x64>
    38d0:	00000713          	li	a4,0
    38d4:	00060c63          	beqz	a2,38ec <__umoddi3+0x1a4>
    38d8:	00010737          	lui	a4,0x10
    38dc:	0ee67663          	bgeu	a2,a4,39c8 <__umoddi3+0x280>
    38e0:	10063713          	sltiu	a4,a2,256
    38e4:	00174713          	xori	a4,a4,1
    38e8:	00371713          	slli	a4,a4,0x3
    38ec:	00e656b3          	srl	a3,a2,a4
    38f0:	00d787b3          	add	a5,a5,a3
    38f4:	0007c783          	lbu	a5,0(a5)
    38f8:	40c584b3          	sub	s1,a1,a2
    38fc:	00e787b3          	add	a5,a5,a4
    3900:	02000713          	li	a4,32
    3904:	40f70933          	sub	s2,a4,a5
    3908:	ecf70ae3          	beq	a4,a5,37dc <__umoddi3+0x94>
    390c:	012619b3          	sll	s3,a2,s2
    3910:	00f5dbb3          	srl	s7,a1,a5
    3914:	0109db13          	srli	s6,s3,0x10
    3918:	00f557b3          	srl	a5,a0,a5
    391c:	012595b3          	sll	a1,a1,s2
    3920:	00b7ea33          	or	s4,a5,a1
    3924:	01251433          	sll	s0,a0,s2
    3928:	000b0593          	mv	a1,s6
    392c:	01099a93          	slli	s5,s3,0x10
    3930:	000b8513          	mv	a0,s7
    3934:	310000ef          	jal	ra,3c44 <__hidden___udivsi3>
    3938:	010ada93          	srli	s5,s5,0x10
    393c:	000a8593          	mv	a1,s5
    3940:	2d8000ef          	jal	ra,3c18 <__mulsi3>
    3944:	00050493          	mv	s1,a0
    3948:	000b0593          	mv	a1,s6
    394c:	000b8513          	mv	a0,s7
    3950:	33c000ef          	jal	ra,3c8c <__umodsi3>
    3954:	01051513          	slli	a0,a0,0x10
    3958:	010a5713          	srli	a4,s4,0x10
    395c:	00a76733          	or	a4,a4,a0
    3960:	00977a63          	bgeu	a4,s1,3974 <__umoddi3+0x22c>
    3964:	00e98733          	add	a4,s3,a4
    3968:	01376663          	bltu	a4,s3,3974 <__umoddi3+0x22c>
    396c:	00977463          	bgeu	a4,s1,3974 <__umoddi3+0x22c>
    3970:	01370733          	add	a4,a4,s3
    3974:	409704b3          	sub	s1,a4,s1
    3978:	000b0593          	mv	a1,s6
    397c:	00048513          	mv	a0,s1
    3980:	2c4000ef          	jal	ra,3c44 <__hidden___udivsi3>
    3984:	000a8593          	mv	a1,s5
    3988:	290000ef          	jal	ra,3c18 <__mulsi3>
    398c:	00050a93          	mv	s5,a0
    3990:	000b0593          	mv	a1,s6
    3994:	00048513          	mv	a0,s1
    3998:	2f4000ef          	jal	ra,3c8c <__umodsi3>
    399c:	010a1793          	slli	a5,s4,0x10
    39a0:	01051513          	slli	a0,a0,0x10
    39a4:	0107d793          	srli	a5,a5,0x10
    39a8:	00a7e7b3          	or	a5,a5,a0
    39ac:	0157fa63          	bgeu	a5,s5,39c0 <__umoddi3+0x278>
    39b0:	00f987b3          	add	a5,s3,a5
    39b4:	0137e663          	bltu	a5,s3,39c0 <__umoddi3+0x278>
    39b8:	0157f463          	bgeu	a5,s5,39c0 <__umoddi3+0x278>
    39bc:	013787b3          	add	a5,a5,s3
    39c0:	415784b3          	sub	s1,a5,s5
    39c4:	e19ff06f          	j	37dc <__umoddi3+0x94>
    39c8:	010006b7          	lui	a3,0x1000
    39cc:	01000713          	li	a4,16
    39d0:	f0d66ee3          	bltu	a2,a3,38ec <__umoddi3+0x1a4>
    39d4:	01800713          	li	a4,24
    39d8:	f15ff06f          	j	38ec <__umoddi3+0x1a4>
    39dc:	ead5e4e3          	bltu	a1,a3,3884 <__umoddi3+0x13c>
    39e0:	000107b7          	lui	a5,0x10
    39e4:	04f6fe63          	bgeu	a3,a5,3a40 <__umoddi3+0x2f8>
    39e8:	1006b793          	sltiu	a5,a3,256
    39ec:	0017c793          	xori	a5,a5,1
    39f0:	00379793          	slli	a5,a5,0x3
    39f4:	00004737          	lui	a4,0x4
    39f8:	00f6d833          	srl	a6,a3,a5
    39fc:	f4470713          	addi	a4,a4,-188 # 3f44 <__clz_tab>
    3a00:	01070733          	add	a4,a4,a6
    3a04:	00074a83          	lbu	s5,0(a4)
    3a08:	00fa8ab3          	add	s5,s5,a5
    3a0c:	02000793          	li	a5,32
    3a10:	41578a33          	sub	s4,a5,s5
    3a14:	05579063          	bne	a5,s5,3a54 <__umoddi3+0x30c>
    3a18:	00b6e463          	bltu	a3,a1,3a20 <__umoddi3+0x2d8>
    3a1c:	00c56c63          	bltu	a0,a2,3a34 <__umoddi3+0x2ec>
    3a20:	40c50933          	sub	s2,a0,a2
    3a24:	40d586b3          	sub	a3,a1,a3
    3a28:	012534b3          	sltu	s1,a0,s2
    3a2c:	00090413          	mv	s0,s2
    3a30:	409684b3          	sub	s1,a3,s1
    3a34:	00040513          	mv	a0,s0
    3a38:	00048593          	mv	a1,s1
    3a3c:	e49ff06f          	j	3884 <__umoddi3+0x13c>
    3a40:	01000737          	lui	a4,0x1000
    3a44:	01000793          	li	a5,16
    3a48:	fae6e6e3          	bltu	a3,a4,39f4 <__umoddi3+0x2ac>
    3a4c:	01800793          	li	a5,24
    3a50:	fa5ff06f          	j	39f4 <__umoddi3+0x2ac>
    3a54:	014696b3          	sll	a3,a3,s4
    3a58:	01565bb3          	srl	s7,a2,s5
    3a5c:	00dbebb3          	or	s7,s7,a3
    3a60:	0155d9b3          	srl	s3,a1,s5
    3a64:	01555433          	srl	s0,a0,s5
    3a68:	014595b3          	sll	a1,a1,s4
    3a6c:	010bd493          	srli	s1,s7,0x10
    3a70:	00b46433          	or	s0,s0,a1
    3a74:	01451b33          	sll	s6,a0,s4
    3a78:	00048593          	mv	a1,s1
    3a7c:	00098513          	mv	a0,s3
    3a80:	010b9c13          	slli	s8,s7,0x10
    3a84:	01461933          	sll	s2,a2,s4
    3a88:	010c5c13          	srli	s8,s8,0x10
    3a8c:	1b8000ef          	jal	ra,3c44 <__hidden___udivsi3>
    3a90:	00050593          	mv	a1,a0
    3a94:	00050d13          	mv	s10,a0
    3a98:	000c0513          	mv	a0,s8
    3a9c:	17c000ef          	jal	ra,3c18 <__mulsi3>
    3aa0:	00050c93          	mv	s9,a0
    3aa4:	00048593          	mv	a1,s1
    3aa8:	00098513          	mv	a0,s3
    3aac:	1e0000ef          	jal	ra,3c8c <__umodsi3>
    3ab0:	01051513          	slli	a0,a0,0x10
    3ab4:	01045793          	srli	a5,s0,0x10
    3ab8:	00a7e7b3          	or	a5,a5,a0
    3abc:	000d0993          	mv	s3,s10
    3ac0:	0197fe63          	bgeu	a5,s9,3adc <__umoddi3+0x394>
    3ac4:	00fb87b3          	add	a5,s7,a5
    3ac8:	fffd0993          	addi	s3,s10,-1
    3acc:	0177e863          	bltu	a5,s7,3adc <__umoddi3+0x394>
    3ad0:	0197f663          	bgeu	a5,s9,3adc <__umoddi3+0x394>
    3ad4:	ffed0993          	addi	s3,s10,-2
    3ad8:	017787b3          	add	a5,a5,s7
    3adc:	41978cb3          	sub	s9,a5,s9
    3ae0:	00048593          	mv	a1,s1
    3ae4:	000c8513          	mv	a0,s9
    3ae8:	15c000ef          	jal	ra,3c44 <__hidden___udivsi3>
    3aec:	00050593          	mv	a1,a0
    3af0:	00050d13          	mv	s10,a0
    3af4:	000c0513          	mv	a0,s8
    3af8:	120000ef          	jal	ra,3c18 <__mulsi3>
    3afc:	00048593          	mv	a1,s1
    3b00:	00050c13          	mv	s8,a0
    3b04:	000c8513          	mv	a0,s9
    3b08:	184000ef          	jal	ra,3c8c <__umodsi3>
    3b0c:	01041593          	slli	a1,s0,0x10
    3b10:	01051513          	slli	a0,a0,0x10
    3b14:	0105d593          	srli	a1,a1,0x10
    3b18:	00a5e5b3          	or	a1,a1,a0
    3b1c:	000d0793          	mv	a5,s10
    3b20:	0185fe63          	bgeu	a1,s8,3b3c <__umoddi3+0x3f4>
    3b24:	00bb85b3          	add	a1,s7,a1
    3b28:	fffd0793          	addi	a5,s10,-1
    3b2c:	0175e863          	bltu	a1,s7,3b3c <__umoddi3+0x3f4>
    3b30:	0185f663          	bgeu	a1,s8,3b3c <__umoddi3+0x3f4>
    3b34:	ffed0793          	addi	a5,s10,-2
    3b38:	017585b3          	add	a1,a1,s7
    3b3c:	00010e37          	lui	t3,0x10
    3b40:	01099993          	slli	s3,s3,0x10
    3b44:	00f9e9b3          	or	s3,s3,a5
    3b48:	fffe0793          	addi	a5,t3,-1 # ffff <fromhost+0xfbf>
    3b4c:	00f9f733          	and	a4,s3,a5
    3b50:	00f977b3          	and	a5,s2,a5
    3b54:	418584b3          	sub	s1,a1,s8
    3b58:	0109d993          	srli	s3,s3,0x10
    3b5c:	01095313          	srli	t1,s2,0x10
    3b60:	00070513          	mv	a0,a4
    3b64:	00078593          	mv	a1,a5
    3b68:	0b0000ef          	jal	ra,3c18 <__mulsi3>
    3b6c:	00050813          	mv	a6,a0
    3b70:	00030593          	mv	a1,t1
    3b74:	00070513          	mv	a0,a4
    3b78:	0a0000ef          	jal	ra,3c18 <__mulsi3>
    3b7c:	00050713          	mv	a4,a0
    3b80:	00078593          	mv	a1,a5
    3b84:	00098513          	mv	a0,s3
    3b88:	090000ef          	jal	ra,3c18 <__mulsi3>
    3b8c:	00050893          	mv	a7,a0
    3b90:	00030593          	mv	a1,t1
    3b94:	00098513          	mv	a0,s3
    3b98:	080000ef          	jal	ra,3c18 <__mulsi3>
    3b9c:	01085793          	srli	a5,a6,0x10
    3ba0:	01170733          	add	a4,a4,a7
    3ba4:	00e787b3          	add	a5,a5,a4
    3ba8:	00050693          	mv	a3,a0
    3bac:	0117f463          	bgeu	a5,a7,3bb4 <__umoddi3+0x46c>
    3bb0:	01c506b3          	add	a3,a0,t3
    3bb4:	0107d713          	srli	a4,a5,0x10
    3bb8:	00d70733          	add	a4,a4,a3
    3bbc:	000106b7          	lui	a3,0x10
    3bc0:	fff68693          	addi	a3,a3,-1 # ffff <fromhost+0xfbf>
    3bc4:	00d7f7b3          	and	a5,a5,a3
    3bc8:	01079793          	slli	a5,a5,0x10
    3bcc:	00d87833          	and	a6,a6,a3
    3bd0:	010787b3          	add	a5,a5,a6
    3bd4:	00e4e663          	bltu	s1,a4,3be0 <__umoddi3+0x498>
    3bd8:	00e49e63          	bne	s1,a4,3bf4 <__umoddi3+0x4ac>
    3bdc:	00fb7c63          	bgeu	s6,a5,3bf4 <__umoddi3+0x4ac>
    3be0:	41278933          	sub	s2,a5,s2
    3be4:	0127b6b3          	sltu	a3,a5,s2
    3be8:	017686b3          	add	a3,a3,s7
    3bec:	00090793          	mv	a5,s2
    3bf0:	40d70733          	sub	a4,a4,a3
    3bf4:	40fb07b3          	sub	a5,s6,a5
    3bf8:	00fb3b33          	sltu	s6,s6,a5
    3bfc:	40e485b3          	sub	a1,s1,a4
    3c00:	416585b3          	sub	a1,a1,s6
    3c04:	01559ab3          	sll	s5,a1,s5
    3c08:	0147d7b3          	srl	a5,a5,s4
    3c0c:	00fae533          	or	a0,s5,a5
    3c10:	0145d5b3          	srl	a1,a1,s4
    3c14:	c71ff06f          	j	3884 <__umoddi3+0x13c>

00003c18 <__mulsi3>:
    3c18:	00050613          	mv	a2,a0
    3c1c:	00000513          	li	a0,0
    3c20:	0015f693          	andi	a3,a1,1
    3c24:	00068463          	beqz	a3,3c2c <__mulsi3+0x14>
    3c28:	00c50533          	add	a0,a0,a2
    3c2c:	0015d593          	srli	a1,a1,0x1
    3c30:	00161613          	slli	a2,a2,0x1
    3c34:	fe0596e3          	bnez	a1,3c20 <__mulsi3+0x8>
    3c38:	00008067          	ret

00003c3c <__divsi3>:
    3c3c:	06054063          	bltz	a0,3c9c <__umodsi3+0x10>
    3c40:	0605c663          	bltz	a1,3cac <__umodsi3+0x20>

00003c44 <__hidden___udivsi3>:
    3c44:	00058613          	mv	a2,a1
    3c48:	00050593          	mv	a1,a0
    3c4c:	fff00513          	li	a0,-1
    3c50:	02060c63          	beqz	a2,3c88 <__hidden___udivsi3+0x44>
    3c54:	00100693          	li	a3,1
    3c58:	00b67a63          	bgeu	a2,a1,3c6c <__hidden___udivsi3+0x28>
    3c5c:	00c05863          	blez	a2,3c6c <__hidden___udivsi3+0x28>
    3c60:	00161613          	slli	a2,a2,0x1
    3c64:	00169693          	slli	a3,a3,0x1
    3c68:	feb66ae3          	bltu	a2,a1,3c5c <__hidden___udivsi3+0x18>
    3c6c:	00000513          	li	a0,0
    3c70:	00c5e663          	bltu	a1,a2,3c7c <__hidden___udivsi3+0x38>
    3c74:	40c585b3          	sub	a1,a1,a2
    3c78:	00d56533          	or	a0,a0,a3
    3c7c:	0016d693          	srli	a3,a3,0x1
    3c80:	00165613          	srli	a2,a2,0x1
    3c84:	fe0696e3          	bnez	a3,3c70 <__hidden___udivsi3+0x2c>
    3c88:	00008067          	ret

00003c8c <__umodsi3>:
    3c8c:	00008293          	mv	t0,ra
    3c90:	fb5ff0ef          	jal	ra,3c44 <__hidden___udivsi3>
    3c94:	00058513          	mv	a0,a1
    3c98:	00028067          	jr	t0
    3c9c:	40a00533          	neg	a0,a0
    3ca0:	00b04863          	bgtz	a1,3cb0 <__umodsi3+0x24>
    3ca4:	40b005b3          	neg	a1,a1
    3ca8:	f9dff06f          	j	3c44 <__hidden___udivsi3>
    3cac:	40b005b3          	neg	a1,a1
    3cb0:	00008293          	mv	t0,ra
    3cb4:	f91ff0ef          	jal	ra,3c44 <__hidden___udivsi3>
    3cb8:	40a00533          	neg	a0,a0
    3cbc:	00028067          	jr	t0

00003cc0 <__modsi3>:
    3cc0:	00008293          	mv	t0,ra
    3cc4:	0005ca63          	bltz	a1,3cd8 <__modsi3+0x18>
    3cc8:	00054c63          	bltz	a0,3ce0 <__modsi3+0x20>
    3ccc:	f79ff0ef          	jal	ra,3c44 <__hidden___udivsi3>
    3cd0:	00058513          	mv	a0,a1
    3cd4:	00028067          	jr	t0
    3cd8:	40b005b3          	neg	a1,a1
    3cdc:	fe0558e3          	bgez	a0,3ccc <__modsi3+0xc>
    3ce0:	40a00533          	neg	a0,a0
    3ce4:	f61ff0ef          	jal	ra,3c44 <__hidden___udivsi3>
    3ce8:	40b00533          	neg	a0,a1
    3cec:	00028067          	jr	t0

Disassembly of section .text.startup:

00003cf0 <main>:
    3cf0:	9b010113          	addi	sp,sp,-1616
    3cf4:	00000597          	auipc	a1,0x0
    3cf8:	45458593          	addi	a1,a1,1108 # 4148 <input_data>
    3cfc:	00010613          	mv	a2,sp
    3d00:	19000513          	li	a0,400
    3d04:	64112623          	sw	ra,1612(sp)
    3d08:	af8fe0ef          	jal	ra,2000 <median>
    3d0c:	00100513          	li	a0,1
    3d10:	92dfe0ef          	jal	ra,263c <setStats>
    3d14:	00010613          	mv	a2,sp
    3d18:	00000597          	auipc	a1,0x0
    3d1c:	43058593          	addi	a1,a1,1072 # 4148 <input_data>
    3d20:	19000513          	li	a0,400
    3d24:	adcfe0ef          	jal	ra,2000 <median>
    3d28:	00000513          	li	a0,0
    3d2c:	911fe0ef          	jal	ra,263c <setStats>
    3d30:	00010793          	mv	a5,sp
    3d34:	00001717          	auipc	a4,0x1
    3d38:	a5470713          	addi	a4,a4,-1452 # 4788 <verify_data>
    3d3c:	00000513          	li	a0,0
    3d40:	19000893          	li	a7,400
    3d44:	0180006f          	j	3d5c <main+0x6c>
    3d48:	00250513          	addi	a0,a0,2
    3d4c:	02b81463          	bne	a6,a1,3d74 <main+0x84>
    3d50:	00878793          	addi	a5,a5,8 # 10008 <fromhost+0xfc8>
    3d54:	00870713          	addi	a4,a4,8
    3d58:	03150463          	beq	a0,a7,3d80 <main+0x90>
    3d5c:	0007a603          	lw	a2,0(a5)
    3d60:	00072683          	lw	a3,0(a4)
    3d64:	0047a803          	lw	a6,4(a5)
    3d68:	00472583          	lw	a1,4(a4)
    3d6c:	fcd60ee3          	beq	a2,a3,3d48 <main+0x58>
    3d70:	00150513          	addi	a0,a0,1
    3d74:	64c12083          	lw	ra,1612(sp)
    3d78:	65010113          	addi	sp,sp,1616
    3d7c:	00008067          	ret
    3d80:	00000513          	li	a0,0
    3d84:	ff1ff06f          	j	3d74 <main+0x84>
    3d88:	ff010113          	addi	sp,sp,-16
    3d8c:	00000517          	auipc	a0,0x0
    3d90:	03c50513          	addi	a0,a0,60 # 3dc8 <main+0xd8>
    3d94:	00112623          	sw	ra,12(sp)
    3d98:	96dfe0ef          	jal	ra,2704 <printstr>
    3d9c:	00c12083          	lw	ra,12(sp)
    3da0:	fff00513          	li	a0,-1
    3da4:	01010113          	addi	sp,sp,16
    3da8:	00008067          	ret
